---
triple:          'arm64-apple-darwin'
binary-path:     '/Users/liamjermy/CodeFolder/C++/Projects/StockMonitor/bin/main'
relocations:
  - { offsetInCU: 0xB8A0, offset: 0xB8A0, size: 0x8, addend: 0x0, symName: __ZNSt3__1plB8ue170006IcNS_11char_traitsIcEENS_9allocatorIcEEEENS_12basic_stringIT_T0_T1_EEOS9_RKS9_, symObjAddr: 0x308, symBinAddr: 0x100003C38, symSize: 0x40 }
  - { offsetInCU: 0xCDB5, offset: 0xCDB5, size: 0x8, addend: 0x0, symName: __ZNSt3__1rsB8ue170006IcNS_11char_traitsIcEENS_9allocatorIcEEEERNS_13basic_istreamIT_T0_EES9_RNS_12basic_stringIS6_S7_T1_EE, symObjAddr: 0x508, symBinAddr: 0x100003E38, symSize: 0x31C }
  - { offsetInCU: 0xCE8F, offset: 0xCE8F, size: 0x8, addend: 0x0, symName: __ZNSt3__1plB8ue170006IcNS_11char_traitsIcEENS_9allocatorIcEEEENS_12basic_stringIT_T0_T1_EEOS9_PKS6_, symObjAddr: 0xA34, symBinAddr: 0x100004364, symSize: 0x40 }
  - { offsetInCU: 0xD093, offset: 0xD093, size: 0x8, addend: 0x0, symName: __ZNSt3__112__to_addressB8ue170006IKcEEPT_S3_, symObjAddr: 0xE5C, symBinAddr: 0x10000478C, symSize: 0x14 }
  - { offsetInCU: 0xD0FB, offset: 0xD0FB, size: 0x8, addend: 0x0, symName: __ZNSt3__118__constexpr_strlenB8ue170006EPKc, symObjAddr: 0x111C, symBinAddr: 0x100004A4C, symSize: 0x24 }
  - { offsetInCU: 0xD311, offset: 0xD311, size: 0x8, addend: 0x0, symName: __ZNSt3__19use_facetB8ue170006INS_5ctypeIcEEEERKT_RKNS_6localeE, symObjAddr: 0x1604, symBinAddr: 0x100004F34, symSize: 0x2C }
  - { offsetInCU: 0x10522, offset: 0x10522, size: 0x8, addend: 0x0, symName: __ZN11FileManager11readProfileEPNSt3__112basic_stringIcNS0_11char_traitsIcEENS0_9allocatorIcEEEE, symObjAddr: 0x0, symBinAddr: 0x100003930, symSize: 0x74 }
  - { offsetInCU: 0x1054E, offset: 0x1054E, size: 0x8, addend: 0x0, symName: __ZN11FileManager12readFromFileENSt3__112basic_stringIcNS0_11char_traitsIcEENS0_9allocatorIcEEEEPS6_, symObjAddr: 0x74, symBinAddr: 0x1000039A4, symSize: 0x1EC }
  - { offsetInCU: 0x1059A, offset: 0x1059A, size: 0x8, addend: 0x0, symName: __ZN11FileManager17readPolygonApiKeyEPNSt3__112basic_stringIcNS0_11char_traitsIcEENS0_9allocatorIcEEEE, symObjAddr: 0x294, symBinAddr: 0x100003BC4, symSize: 0x74 }
  - { offsetInCU: 0x105C6, offset: 0x105C6, size: 0x8, addend: 0x0, symName: __ZN11FileManager19createPolygonApiKeyERKNSt3__112basic_stringIcNS0_11char_traitsIcEENS0_9allocatorIcEEEE, symObjAddr: 0x8BC, symBinAddr: 0x1000041EC, symSize: 0x178 }
  - { offsetInCU: 0x10604, offset: 0x10604, size: 0x8, addend: 0x0, symName: __ZNSt3__112basic_stringIcNS_11char_traitsIcEENS_9allocatorIcEEEC1B8ue170006ILi0EEEPKc, symObjAddr: 0x260, symBinAddr: 0x100003B90, symSize: 0x34 }
  - { offsetInCU: 0x107D8, offset: 0x107D8, size: 0x8, addend: 0x0, symName: __ZNSt3__114basic_ifstreamIcNS_11char_traitsIcEEEC1ERKNS_12basic_stringIcS2_NS_9allocatorIcEEEEj, symObjAddr: 0x348, symBinAddr: 0x100003C78, symSize: 0x16C }
  - { offsetInCU: 0x10821, offset: 0x10821, size: 0x8, addend: 0x0, symName: __ZNKSt3__114basic_ifstreamIcNS_11char_traitsIcEEE7is_openEv, symObjAddr: 0x4B4, symBinAddr: 0x100003DE4, symSize: 0x2C }
  - { offsetInCU: 0x10847, offset: 0x10847, size: 0x8, addend: 0x0, symName: __ZNKSt3__19basic_iosIcNS_11char_traitsIcEEE3eofB8ue170006Ev, symObjAddr: 0x4E0, symBinAddr: 0x100003E10, symSize: 0x28 }
  - { offsetInCU: 0x1086C, offset: 0x1086C, size: 0x8, addend: 0x0, symName: __ZNSt3__114basic_ifstreamIcNS_11char_traitsIcEEE5closeEv, symObjAddr: 0x824, symBinAddr: 0x100004154, symSize: 0x58 }
  - { offsetInCU: 0x10897, offset: 0x10897, size: 0x8, addend: 0x0, symName: __ZNSt3__114basic_ifstreamIcNS_11char_traitsIcEEED1Ev, symObjAddr: 0x87C, symBinAddr: 0x1000041AC, symSize: 0x40 }
  - { offsetInCU: 0x108DB, offset: 0x108DB, size: 0x8, addend: 0x0, symName: __ZNSt3__114basic_ofstreamIcNS_11char_traitsIcEEEC1ERKNS_12basic_stringIcS2_NS_9allocatorIcEEEEj, symObjAddr: 0xA74, symBinAddr: 0x1000043A4, symSize: 0x16C }
  - { offsetInCU: 0x10924, offset: 0x10924, size: 0x8, addend: 0x0, symName: __ZNKSt3__114basic_ofstreamIcNS_11char_traitsIcEEE7is_openEv, symObjAddr: 0xBE0, symBinAddr: 0x100004510, symSize: 0x2C }
  - { offsetInCU: 0x1094A, offset: 0x1094A, size: 0x8, addend: 0x0, symName: __ZNKSt3__112basic_stringIcNS_11char_traitsIcEENS_9allocatorIcEEE5c_strB8ue170006Ev, symObjAddr: 0xC0C, symBinAddr: 0x10000453C, symSize: 0x24 }
  - { offsetInCU: 0x1096F, offset: 0x1096F, size: 0x8, addend: 0x0, symName: __ZNKSt3__112basic_stringIcNS_11char_traitsIcEENS_9allocatorIcEEE4sizeB8ue170006Ev, symObjAddr: 0xC30, symBinAddr: 0x100004560, symSize: 0x54 }
  - { offsetInCU: 0x10994, offset: 0x10994, size: 0x8, addend: 0x0, symName: __ZNSt3__114basic_ofstreamIcNS_11char_traitsIcEEE5closeEv, symObjAddr: 0xC84, symBinAddr: 0x1000045B4, symSize: 0x58 }
  - { offsetInCU: 0x109BF, offset: 0x109BF, size: 0x8, addend: 0x0, symName: __ZNSt3__114basic_ofstreamIcNS_11char_traitsIcEEED1Ev, symObjAddr: 0xCDC, symBinAddr: 0x10000460C, symSize: 0x40 }
  - { offsetInCU: 0x109EB, offset: 0x109EB, size: 0x8, addend: 0x0, symName: __ZNSt3__114basic_ifstreamIcNS_11char_traitsIcEEED2Ev, symObjAddr: 0xD1C, symBinAddr: 0x10000464C, symSize: 0x64 }
  - { offsetInCU: 0x10A23, offset: 0x10A23, size: 0x8, addend: 0x0, symName: __ZTv0_n24_NSt3__114basic_ifstreamIcNS_11char_traitsIcEEED1Ev, symObjAddr: 0xD80, symBinAddr: 0x1000046B0, symSize: 0x28 }
  - { offsetInCU: 0x10A3A, offset: 0x10A3A, size: 0x8, addend: 0x0, symName: __ZNSt3__114basic_ofstreamIcNS_11char_traitsIcEEED2Ev, symObjAddr: 0xDA8, symBinAddr: 0x1000046D8, symSize: 0x64 }
  - { offsetInCU: 0x10A72, offset: 0x10A72, size: 0x8, addend: 0x0, symName: __ZTv0_n24_NSt3__114basic_ofstreamIcNS_11char_traitsIcEEED1Ev, symObjAddr: 0xE0C, symBinAddr: 0x10000473C, symSize: 0x28 }
  - { offsetInCU: 0x10A89, offset: 0x10A89, size: 0x8, addend: 0x0, symName: __ZNKSt3__112basic_stringIcNS_11char_traitsIcEENS_9allocatorIcEEE4dataB8ue170006Ev, symObjAddr: 0xE34, symBinAddr: 0x100004764, symSize: 0x28 }
  - { offsetInCU: 0x10AAE, offset: 0x10AAE, size: 0x8, addend: 0x0, symName: __ZNKSt3__112basic_stringIcNS_11char_traitsIcEENS_9allocatorIcEEE13__get_pointerB8ue170006Ev, symObjAddr: 0xE70, symBinAddr: 0x1000047A0, symSize: 0x54 }
  - { offsetInCU: 0x10AD3, offset: 0x10AD3, size: 0x8, addend: 0x0, symName: __ZNKSt3__112basic_stringIcNS_11char_traitsIcEENS_9allocatorIcEEE9__is_longB8ue170006Ev, symObjAddr: 0xEC4, symBinAddr: 0x1000047F4, symSize: 0x38 }
  - { offsetInCU: 0x10AF8, offset: 0x10AF8, size: 0x8, addend: 0x0, symName: __ZNKSt3__112basic_stringIcNS_11char_traitsIcEENS_9allocatorIcEEE18__get_long_pointerB8ue170006Ev, symObjAddr: 0xEFC, symBinAddr: 0x10000482C, symSize: 0x28 }
  - { offsetInCU: 0x10B1D, offset: 0x10B1D, size: 0x8, addend: 0x0, symName: __ZNKSt3__112basic_stringIcNS_11char_traitsIcEENS_9allocatorIcEEE19__get_short_pointerB8ue170006Ev, symObjAddr: 0xF24, symBinAddr: 0x100004854, symSize: 0x28 }
  - { offsetInCU: 0x10B42, offset: 0x10B42, size: 0x8, addend: 0x0, symName: __ZNKSt3__117__compressed_pairINS_12basic_stringIcNS_11char_traitsIcEENS_9allocatorIcEEE5__repES5_E5firstB8ue170006Ev, symObjAddr: 0xF4C, symBinAddr: 0x10000487C, symSize: 0x24 }
  - { offsetInCU: 0x10B67, offset: 0x10B67, size: 0x8, addend: 0x0, symName: __ZNKSt3__122__compressed_pair_elemINS_12basic_stringIcNS_11char_traitsIcEENS_9allocatorIcEEE5__repELi0ELb0EE5__getB8ue170006Ev, symObjAddr: 0xF70, symBinAddr: 0x1000048A0, symSize: 0x14 }
  - { offsetInCU: 0x10B8C, offset: 0x10B8C, size: 0x8, addend: 0x0, symName: __ZNSt3__114pointer_traitsIPKcE10pointer_toB8ue170006ERS1_, symObjAddr: 0xF84, symBinAddr: 0x1000048B4, symSize: 0x14 }
  - { offsetInCU: 0x10BAE, offset: 0x10BAE, size: 0x8, addend: 0x0, symName: __ZNSt3__112basic_stringIcNS_11char_traitsIcEENS_9allocatorIcEEEC2B8ue170006ILi0EEEPKc, symObjAddr: 0xF98, symBinAddr: 0x1000048C8, symSize: 0x58 }
  - { offsetInCU: 0x10BF0, offset: 0x10BF0, size: 0x8, addend: 0x0, symName: __ZNSt3__117__compressed_pairINS_12basic_stringIcNS_11char_traitsIcEENS_9allocatorIcEEE5__repES5_EC1B8ue170006INS_18__default_init_tagESA_EEOT_OT0_, symObjAddr: 0xFF0, symBinAddr: 0x100004920, symSize: 0x3C }
  - { offsetInCU: 0x10C47, offset: 0x10C47, size: 0x8, addend: 0x0, symName: __ZNSt3__111char_traitsIcE6lengthB8ue170006EPKc, symObjAddr: 0x102C, symBinAddr: 0x10000495C, symSize: 0x34 }
  - { offsetInCU: 0x10C69, offset: 0x10C69, size: 0x8, addend: 0x0, symName: __ZNSt3__117__compressed_pairINS_12basic_stringIcNS_11char_traitsIcEENS_9allocatorIcEEE5__repES5_EC2B8ue170006INS_18__default_init_tagESA_EEOT_OT0_, symObjAddr: 0x1060, symBinAddr: 0x100004990, symSize: 0x3C }
  - { offsetInCU: 0x10CC0, offset: 0x10CC0, size: 0x8, addend: 0x0, symName: __ZNSt3__122__compressed_pair_elemINS_12basic_stringIcNS_11char_traitsIcEENS_9allocatorIcEEE5__repELi0ELb0EEC2B8ue170006ENS_18__default_init_tagE, symObjAddr: 0x109C, symBinAddr: 0x1000049CC, symSize: 0x14 }
  - { offsetInCU: 0x10CF3, offset: 0x10CF3, size: 0x8, addend: 0x0, symName: __ZNSt3__122__compressed_pair_elemINS_9allocatorIcEELi1ELb1EEC2B8ue170006ENS_18__default_init_tagE, symObjAddr: 0x10B0, symBinAddr: 0x1000049E0, symSize: 0x2C }
  - { offsetInCU: 0x10D26, offset: 0x10D26, size: 0x8, addend: 0x0, symName: __ZNSt3__19allocatorIcEC2B8ue170006Ev, symObjAddr: 0x10DC, symBinAddr: 0x100004A0C, symSize: 0x2C }
  - { offsetInCU: 0x10D4F, offset: 0x10D4F, size: 0x8, addend: 0x0, symName: __ZNSt3__116__non_trivial_ifILb1ENS_9allocatorIcEEEC2B8ue170006Ev, symObjAddr: 0x1108, symBinAddr: 0x100004A38, symSize: 0x14 }
  - { offsetInCU: 0x10D78, offset: 0x10D78, size: 0x8, addend: 0x0, symName: __ZNSt3__112basic_stringIcNS_11char_traitsIcEENS_9allocatorIcEEE6appendB8ue170006ERKS5_, symObjAddr: 0x114C, symBinAddr: 0x100004A7C, symSize: 0x4C }
  - { offsetInCU: 0x10DAB, offset: 0x10DAB, size: 0x8, addend: 0x0, symName: __ZNSt3__112basic_stringIcNS_11char_traitsIcEENS_9allocatorIcEEEC1B8ue170006EOS5_, symObjAddr: 0x1198, symBinAddr: 0x100004AC8, symSize: 0x34 }
  - { offsetInCU: 0x10DE2, offset: 0x10DE2, size: 0x8, addend: 0x0, symName: __ZNSt3__112basic_stringIcNS_11char_traitsIcEENS_9allocatorIcEEEC2B8ue170006EOS5_, symObjAddr: 0x11CC, symBinAddr: 0x100004AFC, symSize: 0x50 }
  - { offsetInCU: 0x10E1A, offset: 0x10E1A, size: 0x8, addend: 0x0, symName: __ZNSt3__112basic_stringIcNS_11char_traitsIcEENS_9allocatorIcEEE14__default_initB8ue170006Ev, symObjAddr: 0x121C, symBinAddr: 0x100004B4C, symSize: 0x40 }
  - { offsetInCU: 0x10E3F, offset: 0x10E3F, size: 0x8, addend: 0x0, symName: __ZNSt3__117__compressed_pairINS_12basic_stringIcNS_11char_traitsIcEENS_9allocatorIcEEE5__repES5_E5firstB8ue170006Ev, symObjAddr: 0x125C, symBinAddr: 0x100004B8C, symSize: 0x24 }
  - { offsetInCU: 0x10E64, offset: 0x10E64, size: 0x8, addend: 0x0, symName: __ZNSt3__122__compressed_pair_elemINS_12basic_stringIcNS_11char_traitsIcEENS_9allocatorIcEEE5__repELi0ELb0EE5__getB8ue170006Ev, symObjAddr: 0x1280, symBinAddr: 0x100004BB0, symSize: 0x14 }
  - { offsetInCU: 0x10E88, offset: 0x10E88, size: 0x8, addend: 0x0, symName: __ZNSt3__19basic_iosIcNS_11char_traitsIcEEEC2B8ue170006Ev, symObjAddr: 0x1294, symBinAddr: 0x100004BC4, symSize: 0x44 }
  - { offsetInCU: 0x10EB0, offset: 0x10EB0, size: 0x8, addend: 0x0, symName: __ZNSt3__113basic_istreamIcNS_11char_traitsIcEEEC2B8ue170006EPNS_15basic_streambufIcS2_EE, symObjAddr: 0x12D8, symBinAddr: 0x100004C08, symSize: 0x64 }
  - { offsetInCU: 0x10EF3, offset: 0x10EF3, size: 0x8, addend: 0x0, symName: __ZNSt3__113basic_filebufIcNS_11char_traitsIcEEE4openERKNS_12basic_stringIcS2_NS_9allocatorIcEEEEj, symObjAddr: 0x133C, symBinAddr: 0x100004C6C, symSize: 0x44 }
  - { offsetInCU: 0x10F35, offset: 0x10F35, size: 0x8, addend: 0x0, symName: __ZNSt3__19basic_iosIcNS_11char_traitsIcEEE8setstateB8ue170006Ej, symObjAddr: 0x1380, symBinAddr: 0x100004CB0, symSize: 0x2C }
  - { offsetInCU: 0x10F69, offset: 0x10F69, size: 0x8, addend: 0x0, symName: __ZNSt3__18ios_baseC2B8ue170006Ev, symObjAddr: 0x13AC, symBinAddr: 0x100004CDC, symSize: 0x24 }
  - { offsetInCU: 0x10F92, offset: 0x10F92, size: 0x8, addend: 0x0, symName: __ZNSt3__19basic_iosIcNS_11char_traitsIcEEE4initB8ue170006EPNS_15basic_streambufIcS2_EE, symObjAddr: 0x13D0, symBinAddr: 0x100004D00, symSize: 0x44 }
  - { offsetInCU: 0x10FC7, offset: 0x10FC7, size: 0x8, addend: 0x0, symName: __ZNSt3__111char_traitsIcE3eofB8ue170006Ev, symObjAddr: 0x1414, symBinAddr: 0x100004D44, symSize: 0x8 }
  - { offsetInCU: 0x10FDB, offset: 0x10FDB, size: 0x8, addend: 0x0, symName: __ZNSt3__18ios_base8setstateB8ue170006Ej, symObjAddr: 0x141C, symBinAddr: 0x100004D4C, symSize: 0x34 }
  - { offsetInCU: 0x11010, offset: 0x11010, size: 0x8, addend: 0x0, symName: __ZNKSt3__113basic_filebufIcNS_11char_traitsIcEEE7is_openEv, symObjAddr: 0x1450, symBinAddr: 0x100004D80, symSize: 0x24 }
  - { offsetInCU: 0x11037, offset: 0x11037, size: 0x8, addend: 0x0, symName: __ZNKSt3__18ios_base3eofB8ue170006Ev, symObjAddr: 0x1474, symBinAddr: 0x100004DA4, symSize: 0x24 }
  - { offsetInCU: 0x1107C, offset: 0x1107C, size: 0x8, addend: 0x0, symName: __ZNKSt3__113basic_istreamIcNS_11char_traitsIcEEE6sentrycvbB8ue170006Ev, symObjAddr: 0x1498, symBinAddr: 0x100004DC8, symSize: 0x1C }
  - { offsetInCU: 0x110A1, offset: 0x110A1, size: 0x8, addend: 0x0, symName: __ZNSt3__112basic_stringIcNS_11char_traitsIcEENS_9allocatorIcEEE5clearB8ue170006Ev, symObjAddr: 0x14B4, symBinAddr: 0x100004DE4, symSize: 0x78 }
  - { offsetInCU: 0x110C7, offset: 0x110C7, size: 0x8, addend: 0x0, symName: __ZNKSt3__18ios_base5widthB8ue170006Ev, symObjAddr: 0x152C, symBinAddr: 0x100004E5C, symSize: 0x18 }
  - { offsetInCU: 0x110EE, offset: 0x110EE, size: 0x8, addend: 0x0, symName: __ZNKSt3__112basic_stringIcNS_11char_traitsIcEENS_9allocatorIcEEE8max_sizeB8ue170006Ev, symObjAddr: 0x1544, symBinAddr: 0x100004E74, symSize: 0xAC }
  - { offsetInCU: 0x11140, offset: 0x11140, size: 0x8, addend: 0x0, symName: __ZNSt3__114numeric_limitsIlE3maxB8ue170006Ev, symObjAddr: 0x15F0, symBinAddr: 0x100004F20, symSize: 0x14 }
  - { offsetInCU: 0x11154, offset: 0x11154, size: 0x8, addend: 0x0, symName: __ZNKSt3__19basic_iosIcNS_11char_traitsIcEEE5rdbufB8ue170006Ev, symObjAddr: 0x1630, symBinAddr: 0x100004F60, symSize: 0x24 }
  - { offsetInCU: 0x1117A, offset: 0x1117A, size: 0x8, addend: 0x0, symName: __ZNSt3__115basic_streambufIcNS_11char_traitsIcEEE5sgetcB8ue170006Ev, symObjAddr: 0x1654, symBinAddr: 0x100004F84, symSize: 0x70 }
  - { offsetInCU: 0x1119F, offset: 0x1119F, size: 0x8, addend: 0x0, symName: __ZNSt3__111char_traitsIcE11eq_int_typeB8ue170006Eii, symObjAddr: 0x16C4, symBinAddr: 0x100004FF4, symSize: 0x28 }
  - { offsetInCU: 0x111D2, offset: 0x111D2, size: 0x8, addend: 0x0, symName: __ZNSt3__111char_traitsIcE12to_char_typeB8ue170006Ei, symObjAddr: 0x16EC, symBinAddr: 0x10000501C, symSize: 0x18 }
  - { offsetInCU: 0x11222, offset: 0x11222, size: 0x8, addend: 0x0, symName: __ZNKSt3__15ctypeIcE2isB8ue170006Ejc, symObjAddr: 0x1704, symBinAddr: 0x100005034, symSize: 0x7C }
  - { offsetInCU: 0x11265, offset: 0x11265, size: 0x8, addend: 0x0, symName: __ZNSt3__115basic_streambufIcNS_11char_traitsIcEEE6sbumpcB8ue170006Ev, symObjAddr: 0x1780, symBinAddr: 0x1000050B0, symSize: 0x78 }
  - { offsetInCU: 0x1128A, offset: 0x1128A, size: 0x8, addend: 0x0, symName: __ZNSt3__18ios_base5widthB8ue170006El, symObjAddr: 0x17F8, symBinAddr: 0x100005128, symSize: 0x2C }
  - { offsetInCU: 0x112CF, offset: 0x112CF, size: 0x8, addend: 0x0, symName: __ZNSt3__18ios_base18__setstate_nothrowB8ue170006Ej, symObjAddr: 0x1824, symBinAddr: 0x100005154, symSize: 0x64 }
  - { offsetInCU: 0x11303, offset: 0x11303, size: 0x8, addend: 0x0, symName: __ZNKSt3__19basic_iosIcNS_11char_traitsIcEEE10exceptionsB8ue170006Ev, symObjAddr: 0x1888, symBinAddr: 0x1000051B8, symSize: 0x24 }
  - { offsetInCU: 0x11328, offset: 0x11328, size: 0x8, addend: 0x0, symName: __ZNSt3__111char_traitsIcE6assignB8ue170006ERcRKc, symObjAddr: 0x18AC, symBinAddr: 0x1000051DC, symSize: 0x24 }
  - { offsetInCU: 0x11359, offset: 0x11359, size: 0x8, addend: 0x0, symName: __ZNSt3__112basic_stringIcNS_11char_traitsIcEENS_9allocatorIcEEE18__get_long_pointerB8ue170006Ev, symObjAddr: 0x18D0, symBinAddr: 0x100005200, symSize: 0x28 }
  - { offsetInCU: 0x1137E, offset: 0x1137E, size: 0x8, addend: 0x0, symName: __ZNSt3__112basic_stringIcNS_11char_traitsIcEENS_9allocatorIcEEE15__set_long_sizeB8ue170006Em, symObjAddr: 0x18F8, symBinAddr: 0x100005228, symSize: 0x38 }
  - { offsetInCU: 0x113B2, offset: 0x113B2, size: 0x8, addend: 0x0, symName: __ZNSt3__112basic_stringIcNS_11char_traitsIcEENS_9allocatorIcEEE19__get_short_pointerB8ue170006Ev, symObjAddr: 0x1930, symBinAddr: 0x100005260, symSize: 0x28 }
  - { offsetInCU: 0x113D7, offset: 0x113D7, size: 0x8, addend: 0x0, symName: __ZNSt3__112basic_stringIcNS_11char_traitsIcEENS_9allocatorIcEEE16__set_short_sizeB8ue170006Em, symObjAddr: 0x1958, symBinAddr: 0x100005288, symSize: 0x78 }
  - { offsetInCU: 0x1140B, offset: 0x1140B, size: 0x8, addend: 0x0, symName: __ZNSt3__114pointer_traitsIPcE10pointer_toB8ue170006ERc, symObjAddr: 0x19D0, symBinAddr: 0x100005300, symSize: 0x14 }
  - { offsetInCU: 0x11438, offset: 0x11438, size: 0x8, addend: 0x0, symName: __ZNSt3__116allocator_traitsINS_9allocatorIcEEE8max_sizeB8ue170006IS2_vEEmRKS2_, symObjAddr: 0x19E4, symBinAddr: 0x100005314, symSize: 0x24 }
  - { offsetInCU: 0x11466, offset: 0x11466, size: 0x8, addend: 0x0, symName: __ZNKSt3__112basic_stringIcNS_11char_traitsIcEENS_9allocatorIcEEE7__allocB8ue170006Ev, symObjAddr: 0x1A08, symBinAddr: 0x100005338, symSize: 0x24 }
  - { offsetInCU: 0x1148B, offset: 0x1148B, size: 0x8, addend: 0x0, symName: __ZNSt3__114numeric_limitsImE3maxB8ue170006Ev, symObjAddr: 0x1A2C, symBinAddr: 0x10000535C, symSize: 0x14 }
  - { offsetInCU: 0x1149F, offset: 0x1149F, size: 0x8, addend: 0x0, symName: __ZNKSt3__19allocatorIcE8max_sizeB8ue170006Ev, symObjAddr: 0x1A40, symBinAddr: 0x100005370, symSize: 0x14 }
  - { offsetInCU: 0x114C4, offset: 0x114C4, size: 0x8, addend: 0x0, symName: __ZNKSt3__117__compressed_pairINS_12basic_stringIcNS_11char_traitsIcEENS_9allocatorIcEEE5__repES5_E6secondB8ue170006Ev, symObjAddr: 0x1A54, symBinAddr: 0x100005384, symSize: 0x24 }
  - { offsetInCU: 0x114E9, offset: 0x114E9, size: 0x8, addend: 0x0, symName: __ZNKSt3__122__compressed_pair_elemINS_9allocatorIcEELi1ELb1EE5__getB8ue170006Ev, symObjAddr: 0x1A78, symBinAddr: 0x1000053A8, symSize: 0x14 }
  - { offsetInCU: 0x1150E, offset: 0x1150E, size: 0x8, addend: 0x0, symName: __ZNSt3__123__libcpp_numeric_limitsImLb1EE3maxB8ue170006Ev, symObjAddr: 0x1A8C, symBinAddr: 0x1000053BC, symSize: 0x8 }
  - { offsetInCU: 0x11522, offset: 0x11522, size: 0x8, addend: 0x0, symName: __ZNSt3__123__libcpp_numeric_limitsIlLb1EE3maxB8ue170006Ev, symObjAddr: 0x1A94, symBinAddr: 0x1000053C4, symSize: 0x8 }
  - { offsetInCU: 0x11536, offset: 0x11536, size: 0x8, addend: 0x0, symName: __ZNKSt3__18ios_base5rdbufB8ue170006Ev, symObjAddr: 0x1A9C, symBinAddr: 0x1000053CC, symSize: 0x18 }
  - { offsetInCU: 0x1155B, offset: 0x1155B, size: 0x8, addend: 0x0, symName: __ZNSt3__111char_traitsIcE11to_int_typeB8ue170006Ec, symObjAddr: 0x1AB4, symBinAddr: 0x1000053E4, symSize: 0x14 }
  - { offsetInCU: 0x1157E, offset: 0x1157E, size: 0x8, addend: 0x0, symName: __Z7isasciii, symObjAddr: 0x1AC8, symBinAddr: 0x1000053F8, symSize: 0x24 }
  - { offsetInCU: 0x115AB, offset: 0x115AB, size: 0x8, addend: 0x0, symName: __ZNKSt3__18ios_base10exceptionsB8ue170006Ev, symObjAddr: 0x1AEC, symBinAddr: 0x10000541C, symSize: 0x18 }
  - { offsetInCU: 0x115D1, offset: 0x115D1, size: 0x8, addend: 0x0, symName: __ZNSt3__113basic_ostreamIcNS_11char_traitsIcEEEC2B8ue170006EPNS_15basic_streambufIcS2_EE, symObjAddr: 0x1B04, symBinAddr: 0x100005434, symSize: 0x60 }
  - { offsetInCU: 0x11614, offset: 0x11614, size: 0x8, addend: 0x0, symName: __ZNKSt3__112basic_stringIcNS_11char_traitsIcEENS_9allocatorIcEEE15__get_long_sizeB8ue170006Ev, symObjAddr: 0x1B64, symBinAddr: 0x100005494, symSize: 0x28 }
  - { offsetInCU: 0x11639, offset: 0x11639, size: 0x8, addend: 0x0, symName: __ZNKSt3__112basic_stringIcNS_11char_traitsIcEENS_9allocatorIcEEE16__get_short_sizeB8ue170006Ev, symObjAddr: 0x1B8C, symBinAddr: 0x1000054BC, symSize: 0x34 }
  - { offsetInCU: 0x3567, offset: 0x14C3C, size: 0x8, addend: 0x0, symName: __ZNSt3__14__fs10filesystem12current_pathB8ue170006ERKNS1_4pathE, symObjAddr: 0x37C, symBinAddr: 0x1000057E4, symSize: 0x28 }
  - { offsetInCU: 0x101E1, offset: 0x218B6, size: 0x8, addend: 0x0, symName: __ZNSt3__1neB8ue170006IcNS_11char_traitsIcEENS_9allocatorIcEEEEbRKNS_12basic_stringIT_T0_T1_EEPKS6_, symObjAddr: 0x28C, symBinAddr: 0x100005748, symSize: 0x34 }
  - { offsetInCU: 0x102F9, offset: 0x219CE, size: 0x8, addend: 0x0, symName: __ZNSt3__17launderB8ue170006INS_4pairIKNS_12basic_stringIcNS_11char_traitsIcEENS_9allocatorIcEEEEMN2UI4MenuEFvvEEEEEPT_SF_, symObjAddr: 0xA94, symBinAddr: 0x100005D80, symSize: 0x24 }
  - { offsetInCU: 0x10330, offset: 0x21A05, size: 0x8, addend: 0x0, symName: __ZNSt3__19__launderB8ue170006INS_4pairIKNS_12basic_stringIcNS_11char_traitsIcEENS_9allocatorIcEEEEMN2UI4MenuEFvvEEEEEPT_SF_, symObjAddr: 0xAB8, symBinAddr: 0x100005DA4, symSize: 0x14 }
  - { offsetInCU: 0x10368, offset: 0x21A3D, size: 0x8, addend: 0x0, symName: __ZNSt3__119__libcpp_deallocateB8ue170006EPvmm, symObjAddr: 0xB10, symBinAddr: 0x100005DFC, symSize: 0x60 }
  - { offsetInCU: 0x103CF, offset: 0x21AA4, size: 0x8, addend: 0x0, symName: __ZNSt3__124__is_overaligned_for_newB8ue170006Em, symObjAddr: 0xB70, symBinAddr: 0x100005E5C, symSize: 0x20 }
  - { offsetInCU: 0x103FE, offset: 0x21AD3, size: 0x8, addend: 0x0, symName: __ZNSt3__127__do_deallocate_handle_sizeB8ue170006IJSt11align_val_tEEEvPvmDpT_, symObjAddr: 0xB90, symBinAddr: 0x100005E7C, symSize: 0x30 }
  - { offsetInCU: 0x10454, offset: 0x21B29, size: 0x8, addend: 0x0, symName: __ZNSt3__127__do_deallocate_handle_sizeB8ue170006IJEEEvPvmDpT_, symObjAddr: 0xBC0, symBinAddr: 0x100005EAC, symSize: 0x28 }
  - { offsetInCU: 0x10494, offset: 0x21B69, size: 0x8, addend: 0x0, symName: __ZNSt3__124__libcpp_operator_deleteB8ue170006IJPvSt11align_val_tEEEvDpT_, symObjAddr: 0xBE8, symBinAddr: 0x100005ED4, symSize: 0x2C }
  - { offsetInCU: 0x104E1, offset: 0x21BB6, size: 0x8, addend: 0x0, symName: __ZNSt3__124__libcpp_operator_deleteB8ue170006IJPvEEEvDpT_, symObjAddr: 0xC14, symBinAddr: 0x100005F00, symSize: 0x24 }
  - { offsetInCU: 0x105D9, offset: 0x21CAE, size: 0x8, addend: 0x0, symName: __ZNSt3__17launderB8ue170006INS_4pairIKj5StockEEEEPT_S6_, symObjAddr: 0x1364, symBinAddr: 0x100006650, symSize: 0x24 }
  - { offsetInCU: 0x10610, offset: 0x21CE5, size: 0x8, addend: 0x0, symName: __ZNSt3__19__launderB8ue170006INS_4pairIKj5StockEEEEPT_S6_, symObjAddr: 0x1388, symBinAddr: 0x100006674, symSize: 0x14 }
  - { offsetInCU: 0x10648, offset: 0x21D1D, size: 0x8, addend: 0x0, symName: __ZNSt3__1eqB8ue170006IcNS_11char_traitsIcEENS_9allocatorIcEEEEbRKNS_12basic_stringIT_T0_T1_EEPKS6_, symObjAddr: 0x178C, symBinAddr: 0x1000069C8, symSize: 0xAC }
  - { offsetInCU: 0x106CE, offset: 0x21DA3, size: 0x8, addend: 0x0, symName: __ZNSt3__18distanceB8ue170006IPKcEENS_15iterator_traitsIT_E15difference_typeES4_S4_, symObjAddr: 0x1CB0, symBinAddr: 0x100006E20, symSize: 0x2C }
  - { offsetInCU: 0x10711, offset: 0x21DE6, size: 0x8, addend: 0x0, symName: __ZNSt3__110__distanceB8ue170006IPKcEENS_15iterator_traitsIT_E15difference_typeES4_S4_NS_26random_access_iterator_tagE, symObjAddr: 0x1F48, symBinAddr: 0x10000706C, symSize: 0x20 }
  - { offsetInCU: 0x1075F, offset: 0x21E34, size: 0x8, addend: 0x0, symName: __ZNSt3__121__is_pointer_in_rangeB8ue170006IccLi0EEEbPKT_S3_PKT0_, symObjAddr: 0x1F68, symBinAddr: 0x10000708C, symSize: 0x68 }
  - { offsetInCU: 0x10806, offset: 0x21EDB, size: 0x8, addend: 0x0, symName: __ZNSt3__119__allocate_at_leastB8ue170006INS_9allocatorIcEEEENS_19__allocation_resultINS_16allocator_traitsIT_E7pointerEEERS5_m, symObjAddr: 0x24B4, symBinAddr: 0x100007418, symSize: 0x40 }
  - { offsetInCU: 0x10849, offset: 0x21F1E, size: 0x8, addend: 0x0, symName: __ZNSt3__120__throw_length_errorB8ue170006EPKc, symObjAddr: 0x26E4, symBinAddr: 0x100007598, symSize: 0x64 }
  - { offsetInCU: 0x10874, offset: 0x21F49, size: 0x8, addend: 0x0, symName: __ZNSt3__117__libcpp_allocateB8ue170006Emm, symObjAddr: 0x2854, symBinAddr: 0x100007708, symSize: 0x60 }
  - { offsetInCU: 0x108CF, offset: 0x21FA4, size: 0x8, addend: 0x0, symName: __ZNSt3__121__libcpp_operator_newB8ue170006IJmSt11align_val_tEEEPvDpT_, symObjAddr: 0x28B4, symBinAddr: 0x100007768, symSize: 0x2C }
  - { offsetInCU: 0x1091F, offset: 0x21FF4, size: 0x8, addend: 0x0, symName: __ZNSt3__121__libcpp_operator_newB8ue170006IJmEEEPvDpT_, symObjAddr: 0x28E0, symBinAddr: 0x100007794, symSize: 0x24 }
  - { offsetInCU: 0x10B52, offset: 0x22227, size: 0x8, addend: 0x0, symName: __ZSt28__throw_bad_array_new_lengthB8ue170006v, symObjAddr: 0x2820, symBinAddr: 0x1000076D4, symSize: 0x34 }
  - { offsetInCU: 0x13CB5, offset: 0x2538A, size: 0x8, addend: 0x0, symName: _main, symObjAddr: 0x0, symBinAddr: 0x1000054F0, symSize: 0x258 }
  - { offsetInCU: 0x13D31, offset: 0x25406, size: 0x8, addend: 0x0, symName: __ZNKSt3__112basic_stringIcNS_11char_traitsIcEENS_9allocatorIcEEE6substrB8ue170006Emm, symObjAddr: 0x2C0, symBinAddr: 0x10000577C, symSize: 0x68 }
  - { offsetInCU: 0x13D74, offset: 0x25449, size: 0x8, addend: 0x0, symName: __ZNSt3__14__fs10filesystem4pathC1B8ue170006INS_12basic_stringIcNS_11char_traitsIcEENS_9allocatorIcEEEEvEERKT_NS2_6formatE, symObjAddr: 0x3A4, symBinAddr: 0x10000580C, symSize: 0x3C }
  - { offsetInCU: 0x13DC1, offset: 0x25496, size: 0x8, addend: 0x0, symName: __ZNSt3__14__fs10filesystem4pathD1B8ue170006Ev, symObjAddr: 0x3E0, symBinAddr: 0x100005848, symSize: 0x2C }
  - { offsetInCU: 0x13DE9, offset: 0x254BE, size: 0x8, addend: 0x0, symName: __ZN7NetworkC1Ev, symObjAddr: 0x40C, symBinAddr: 0x100005874, symSize: 0x2C }
  - { offsetInCU: 0x13E11, offset: 0x254E6, size: 0x8, addend: 0x0, symName: __ZN2UI4MenuD1Ev, symObjAddr: 0x438, symBinAddr: 0x1000058A0, symSize: 0x2C }
  - { offsetInCU: 0x13E3C, offset: 0x25511, size: 0x8, addend: 0x0, symName: __ZN7NetworkD1Ev, symObjAddr: 0x464, symBinAddr: 0x1000058CC, symSize: 0x2C }
  - { offsetInCU: 0x13E67, offset: 0x2553C, size: 0x8, addend: 0x0, symName: __ZNSt3__14__fs10filesystem4pathD2B8ue170006Ev, symObjAddr: 0x490, symBinAddr: 0x1000058F8, symSize: 0x2C }
  - { offsetInCU: 0x13E8F, offset: 0x25564, size: 0x8, addend: 0x0, symName: __ZN7NetworkC2Ev, symObjAddr: 0x4BC, symBinAddr: 0x100005924, symSize: 0x2C }
  - { offsetInCU: 0x13EB7, offset: 0x2558C, size: 0x8, addend: 0x0, symName: __ZNSt3__112basic_stringIcNS_11char_traitsIcEENS_9allocatorIcEEEC1B8ue170006Ev, symObjAddr: 0x4E8, symBinAddr: 0x100005950, symSize: 0x2C }
  - { offsetInCU: 0x13EDF, offset: 0x255B4, size: 0x8, addend: 0x0, symName: __ZNSt3__112basic_stringIcNS_11char_traitsIcEENS_9allocatorIcEEEC2B8ue170006Ev, symObjAddr: 0x514, symBinAddr: 0x10000597C, symSize: 0x48 }
  - { offsetInCU: 0x13F0C, offset: 0x255E1, size: 0x8, addend: 0x0, symName: __ZN2UI4MenuD2Ev, symObjAddr: 0x6D8, symBinAddr: 0x1000059C4, symSize: 0x38 }
  - { offsetInCU: 0x13F37, offset: 0x2560C, size: 0x8, addend: 0x0, symName: __ZNSt3__113unordered_mapINS_12basic_stringIcNS_11char_traitsIcEENS_9allocatorIcEEEEMN2UI4MenuEFvvENS_4hashIS6_EENS_8equal_toIS6_EENS4_INS_4pairIKS6_SA_EEEEED1B8ue170006Ev, symObjAddr: 0x710, symBinAddr: 0x1000059FC, symSize: 0x2C }
  - { offsetInCU: 0x13F5F, offset: 0x25634, size: 0x8, addend: 0x0, symName: __ZN9PortfolioD1Ev, symObjAddr: 0x73C, symBinAddr: 0x100005A28, symSize: 0x2C }
  - { offsetInCU: 0x13F8A, offset: 0x2565F, size: 0x8, addend: 0x0, symName: __ZNSt3__113unordered_mapINS_12basic_stringIcNS_11char_traitsIcEENS_9allocatorIcEEEEMN2UI4MenuEFvvENS_4hashIS6_EENS_8equal_toIS6_EENS4_INS_4pairIKS6_SA_EEEEED2B8ue170006Ev, symObjAddr: 0x768, symBinAddr: 0x100005A54, symSize: 0x2C }
  - { offsetInCU: 0x13FB2, offset: 0x25687, size: 0x8, addend: 0x0, symName: __ZNSt3__112__hash_tableINS_17__hash_value_typeINS_12basic_stringIcNS_11char_traitsIcEENS_9allocatorIcEEEEMN2UI4MenuEFvvEEENS_22__unordered_map_hasherIS7_SC_NS_4hashIS7_EENS_8equal_toIS7_EELb1EEENS_21__unordered_map_equalIS7_SC_SH_SF_Lb1EEENS5_ISC_EEED1Ev, symObjAddr: 0x794, symBinAddr: 0x100005A80, symSize: 0x2C }
  - { offsetInCU: 0x13FDC, offset: 0x256B1, size: 0x8, addend: 0x0, symName: __ZNSt3__112__hash_tableINS_17__hash_value_typeINS_12basic_stringIcNS_11char_traitsIcEENS_9allocatorIcEEEEMN2UI4MenuEFvvEEENS_22__unordered_map_hasherIS7_SC_NS_4hashIS7_EENS_8equal_toIS7_EELb1EEENS_21__unordered_map_equalIS7_SC_SH_SF_Lb1EEENS5_ISC_EEED2Ev, symObjAddr: 0x7C0, symBinAddr: 0x100005AAC, symSize: 0x48 }
  - { offsetInCU: 0x14006, offset: 0x256DB, size: 0x8, addend: 0x0, symName: __ZNSt3__112__hash_tableINS_17__hash_value_typeINS_12basic_stringIcNS_11char_traitsIcEENS_9allocatorIcEEEEMN2UI4MenuEFvvEEENS_22__unordered_map_hasherIS7_SC_NS_4hashIS7_EENS_8equal_toIS7_EELb1EEENS_21__unordered_map_equalIS7_SC_SH_SF_Lb1EEENS5_ISC_EEE17__deallocate_nodeEPNS_16__hash_node_baseIPNS_11__hash_nodeISC_PvEEEE, symObjAddr: 0x808, symBinAddr: 0x100005AF4, symSize: 0xA8 }
  - { offsetInCU: 0x1406E, offset: 0x25743, size: 0x8, addend: 0x0, symName: __ZNSt3__117__compressed_pairINS_16__hash_node_baseIPNS_11__hash_nodeINS_17__hash_value_typeINS_12basic_stringIcNS_11char_traitsIcEENS_9allocatorIcEEEEMN2UI4MenuEFvvEEEPvEEEENS7_ISG_EEE5firstB8ue170006Ev, symObjAddr: 0x8B0, symBinAddr: 0x100005B9C, symSize: 0x24 }
  - { offsetInCU: 0x14093, offset: 0x25768, size: 0x8, addend: 0x0, symName: __ZNSt3__110unique_ptrIA_PNS_16__hash_node_baseIPNS_11__hash_nodeINS_17__hash_value_typeINS_12basic_stringIcNS_11char_traitsIcEENS_9allocatorIcEEEEMN2UI4MenuEFvvEEEPvEEEENS_25__bucket_list_deallocatorINS7_ISJ_EEEEED1B8ue170006Ev, symObjAddr: 0x8D4, symBinAddr: 0x100005BC0, symSize: 0x2C }
  - { offsetInCU: 0x140BB, offset: 0x25790, size: 0x8, addend: 0x0, symName: __ZNSt3__112__hash_tableINS_17__hash_value_typeINS_12basic_stringIcNS_11char_traitsIcEENS_9allocatorIcEEEEMN2UI4MenuEFvvEEENS_22__unordered_map_hasherIS7_SC_NS_4hashIS7_EENS_8equal_toIS7_EELb1EEENS_21__unordered_map_equalIS7_SC_SH_SF_Lb1EEENS5_ISC_EEE12__node_allocB8ue170006Ev, symObjAddr: 0x900, symBinAddr: 0x100005BEC, symSize: 0x28 }
  - { offsetInCU: 0x140E0, offset: 0x257B5, size: 0x8, addend: 0x0, symName: __ZNSt3__116__hash_node_baseIPNS_11__hash_nodeINS_17__hash_value_typeINS_12basic_stringIcNS_11char_traitsIcEENS_9allocatorIcEEEEMN2UI4MenuEFvvEEEPvEEE8__upcastB8ue170006Ev, symObjAddr: 0x928, symBinAddr: 0x100005C14, symSize: 0x24 }
  - { offsetInCU: 0x1410A, offset: 0x257DF, size: 0x8, addend: 0x0, symName: __ZNSt3__116allocator_traitsINS_9allocatorINS_11__hash_nodeINS_17__hash_value_typeINS_12basic_stringIcNS_11char_traitsIcEENS1_IcEEEEMN2UI4MenuEFvvEEEPvEEEEE7destroyB8ue170006INS_4pairIKS8_SC_EEvvEEvRSG_PT_, symObjAddr: 0x94C, symBinAddr: 0x100005C38, symSize: 0x28 }
  - { offsetInCU: 0x14145, offset: 0x2581A, size: 0x8, addend: 0x0, symName: __ZNSt3__122__hash_key_value_typesINS_17__hash_value_typeINS_12basic_stringIcNS_11char_traitsIcEENS_9allocatorIcEEEEMN2UI4MenuEFvvEEEE9__get_ptrB8ue170006ERSC_, symObjAddr: 0x974, symBinAddr: 0x100005C60, symSize: 0x24 }
  - { offsetInCU: 0x14168, offset: 0x2583D, size: 0x8, addend: 0x0, symName: __ZNSt3__116allocator_traitsINS_9allocatorINS_11__hash_nodeINS_17__hash_value_typeINS_12basic_stringIcNS_11char_traitsIcEENS1_IcEEEEMN2UI4MenuEFvvEEEPvEEEEE10deallocateB8ue170006ERSG_PSF_m, symObjAddr: 0x998, symBinAddr: 0x100005C84, symSize: 0x34 }
  - { offsetInCU: 0x141AA, offset: 0x2587F, size: 0x8, addend: 0x0, symName: __ZNSt3__117__compressed_pairINS_16__hash_node_baseIPNS_11__hash_nodeINS_17__hash_value_typeINS_12basic_stringIcNS_11char_traitsIcEENS_9allocatorIcEEEEMN2UI4MenuEFvvEEEPvEEEENS7_ISG_EEE6secondB8ue170006Ev, symObjAddr: 0x9CC, symBinAddr: 0x100005CB8, symSize: 0x24 }
  - { offsetInCU: 0x141CF, offset: 0x258A4, size: 0x8, addend: 0x0, symName: __ZNSt3__122__compressed_pair_elemINS_9allocatorINS_11__hash_nodeINS_17__hash_value_typeINS_12basic_stringIcNS_11char_traitsIcEENS1_IcEEEEMN2UI4MenuEFvvEEEPvEEEELi1ELb1EE5__getB8ue170006Ev, symObjAddr: 0x9F0, symBinAddr: 0x100005CDC, symSize: 0x14 }
  - { offsetInCU: 0x141F4, offset: 0x258C9, size: 0x8, addend: 0x0, symName: __ZNSt3__114pointer_traitsIPNS_16__hash_node_baseIPNS_11__hash_nodeINS_17__hash_value_typeINS_12basic_stringIcNS_11char_traitsIcEENS_9allocatorIcEEEEMN2UI4MenuEFvvEEEPvEEEEE10pointer_toB8ue170006ERSI_, symObjAddr: 0xA04, symBinAddr: 0x100005CF0, symSize: 0x14 }
  - { offsetInCU: 0x14217, offset: 0x258EC, size: 0x8, addend: 0x0, symName: __ZNSt3__14pairIKNS_12basic_stringIcNS_11char_traitsIcEENS_9allocatorIcEEEEMN2UI4MenuEFvvEED1Ev, symObjAddr: 0xA18, symBinAddr: 0x100005D04, symSize: 0x2C }
  - { offsetInCU: 0x14242, offset: 0x25917, size: 0x8, addend: 0x0, symName: __ZNSt3__14pairIKNS_12basic_stringIcNS_11char_traitsIcEENS_9allocatorIcEEEEMN2UI4MenuEFvvEED2Ev, symObjAddr: 0xA44, symBinAddr: 0x100005D30, symSize: 0x2C }
  - { offsetInCU: 0x1426D, offset: 0x25942, size: 0x8, addend: 0x0, symName: __ZNSt3__117__hash_value_typeINS_12basic_stringIcNS_11char_traitsIcEENS_9allocatorIcEEEEMN2UI4MenuEFvvEE11__get_valueB8ue170006Ev, symObjAddr: 0xA70, symBinAddr: 0x100005D5C, symSize: 0x24 }
  - { offsetInCU: 0x14292, offset: 0x25967, size: 0x8, addend: 0x0, symName: __ZNSt3__19allocatorINS_11__hash_nodeINS_17__hash_value_typeINS_12basic_stringIcNS_11char_traitsIcEENS0_IcEEEEMN2UI4MenuEFvvEEEPvEEE10deallocateB8ue170006EPSE_m, symObjAddr: 0xACC, symBinAddr: 0x100005DB8, symSize: 0x44 }
  - { offsetInCU: 0x142D3, offset: 0x259A8, size: 0x8, addend: 0x0, symName: __ZNSt3__122__compressed_pair_elemINS_16__hash_node_baseIPNS_11__hash_nodeINS_17__hash_value_typeINS_12basic_stringIcNS_11char_traitsIcEENS_9allocatorIcEEEEMN2UI4MenuEFvvEEEPvEEEELi0ELb0EE5__getB8ue170006Ev, symObjAddr: 0xC38, symBinAddr: 0x100005F24, symSize: 0x14 }
  - { offsetInCU: 0x142F8, offset: 0x259CD, size: 0x8, addend: 0x0, symName: __ZNSt3__110unique_ptrIA_PNS_16__hash_node_baseIPNS_11__hash_nodeINS_17__hash_value_typeINS_12basic_stringIcNS_11char_traitsIcEENS_9allocatorIcEEEEMN2UI4MenuEFvvEEEPvEEEENS_25__bucket_list_deallocatorINS7_ISJ_EEEEED2B8ue170006Ev, symObjAddr: 0xC4C, symBinAddr: 0x100005F38, symSize: 0x30 }
  - { offsetInCU: 0x14320, offset: 0x259F5, size: 0x8, addend: 0x0, symName: __ZNSt3__110unique_ptrIA_PNS_16__hash_node_baseIPNS_11__hash_nodeINS_17__hash_value_typeINS_12basic_stringIcNS_11char_traitsIcEENS_9allocatorIcEEEEMN2UI4MenuEFvvEEEPvEEEENS_25__bucket_list_deallocatorINS7_ISJ_EEEEE5resetB8ue170006EDn, symObjAddr: 0xC7C, symBinAddr: 0x100005F68, symSize: 0x6C }
  - { offsetInCU: 0x14360, offset: 0x25A35, size: 0x8, addend: 0x0, symName: __ZNSt3__117__compressed_pairIPPNS_16__hash_node_baseIPNS_11__hash_nodeINS_17__hash_value_typeINS_12basic_stringIcNS_11char_traitsIcEENS_9allocatorIcEEEEMN2UI4MenuEFvvEEEPvEEEENS_25__bucket_list_deallocatorINS7_ISJ_EEEEE5firstB8ue170006Ev, symObjAddr: 0xCE8, symBinAddr: 0x100005FD4, symSize: 0x24 }
  - { offsetInCU: 0x14385, offset: 0x25A5A, size: 0x8, addend: 0x0, symName: __ZNSt3__117__compressed_pairIPPNS_16__hash_node_baseIPNS_11__hash_nodeINS_17__hash_value_typeINS_12basic_stringIcNS_11char_traitsIcEENS_9allocatorIcEEEEMN2UI4MenuEFvvEEEPvEEEENS_25__bucket_list_deallocatorINS7_ISJ_EEEEE6secondB8ue170006Ev, symObjAddr: 0xD0C, symBinAddr: 0x100005FF8, symSize: 0x28 }
  - { offsetInCU: 0x143AA, offset: 0x25A7F, size: 0x8, addend: 0x0, symName: __ZNSt3__125__bucket_list_deallocatorINS_9allocatorIPNS_16__hash_node_baseIPNS_11__hash_nodeINS_17__hash_value_typeINS_12basic_stringIcNS_11char_traitsIcEENS1_IcEEEEMN2UI4MenuEFvvEEEPvEEEEEEEclB8ue170006EPSJ_, symObjAddr: 0xD34, symBinAddr: 0x100006020, symSize: 0x58 }
  - { offsetInCU: 0x143DE, offset: 0x25AB3, size: 0x8, addend: 0x0, symName: __ZNSt3__122__compressed_pair_elemIPPNS_16__hash_node_baseIPNS_11__hash_nodeINS_17__hash_value_typeINS_12basic_stringIcNS_11char_traitsIcEENS_9allocatorIcEEEEMN2UI4MenuEFvvEEEPvEEEELi0ELb0EE5__getB8ue170006Ev, symObjAddr: 0xD8C, symBinAddr: 0x100006078, symSize: 0x14 }
  - { offsetInCU: 0x14403, offset: 0x25AD8, size: 0x8, addend: 0x0, symName: __ZNSt3__122__compressed_pair_elemINS_25__bucket_list_deallocatorINS_9allocatorIPNS_16__hash_node_baseIPNS_11__hash_nodeINS_17__hash_value_typeINS_12basic_stringIcNS_11char_traitsIcEENS2_IcEEEEMN2UI4MenuEFvvEEEPvEEEEEEEELi1ELb0EE5__getB8ue170006Ev, symObjAddr: 0xDA0, symBinAddr: 0x10000608C, symSize: 0x14 }
  - { offsetInCU: 0x14428, offset: 0x25AFD, size: 0x8, addend: 0x0, symName: __ZNSt3__116allocator_traitsINS_9allocatorIPNS_16__hash_node_baseIPNS_11__hash_nodeINS_17__hash_value_typeINS_12basic_stringIcNS_11char_traitsIcEENS1_IcEEEEMN2UI4MenuEFvvEEEPvEEEEEEE10deallocateB8ue170006ERSK_PSJ_m, symObjAddr: 0xDB4, symBinAddr: 0x1000060A0, symSize: 0x34 }
  - { offsetInCU: 0x1446A, offset: 0x25B3F, size: 0x8, addend: 0x0, symName: __ZNSt3__125__bucket_list_deallocatorINS_9allocatorIPNS_16__hash_node_baseIPNS_11__hash_nodeINS_17__hash_value_typeINS_12basic_stringIcNS_11char_traitsIcEENS1_IcEEEEMN2UI4MenuEFvvEEEPvEEEEEEE7__allocB8ue170006Ev, symObjAddr: 0xDE8, symBinAddr: 0x1000060D4, symSize: 0x24 }
  - { offsetInCU: 0x1448F, offset: 0x25B64, size: 0x8, addend: 0x0, symName: __ZNSt3__125__bucket_list_deallocatorINS_9allocatorIPNS_16__hash_node_baseIPNS_11__hash_nodeINS_17__hash_value_typeINS_12basic_stringIcNS_11char_traitsIcEENS1_IcEEEEMN2UI4MenuEFvvEEEPvEEEEEEE4sizeB8ue170006Ev, symObjAddr: 0xE0C, symBinAddr: 0x1000060F8, symSize: 0x24 }
  - { offsetInCU: 0x144B4, offset: 0x25B89, size: 0x8, addend: 0x0, symName: __ZNSt3__19allocatorIPNS_16__hash_node_baseIPNS_11__hash_nodeINS_17__hash_value_typeINS_12basic_stringIcNS_11char_traitsIcEENS0_IcEEEEMN2UI4MenuEFvvEEEPvEEEEE10deallocateB8ue170006EPSI_m, symObjAddr: 0xE30, symBinAddr: 0x10000611C, symSize: 0x40 }
  - { offsetInCU: 0x144F5, offset: 0x25BCA, size: 0x8, addend: 0x0, symName: __ZNSt3__117__compressed_pairImNS_9allocatorIPNS_16__hash_node_baseIPNS_11__hash_nodeINS_17__hash_value_typeINS_12basic_stringIcNS_11char_traitsIcEENS1_IcEEEEMN2UI4MenuEFvvEEEPvEEEEEEE6secondB8ue170006Ev, symObjAddr: 0xE70, symBinAddr: 0x10000615C, symSize: 0x24 }
  - { offsetInCU: 0x1451A, offset: 0x25BEF, size: 0x8, addend: 0x0, symName: __ZNSt3__122__compressed_pair_elemINS_9allocatorIPNS_16__hash_node_baseIPNS_11__hash_nodeINS_17__hash_value_typeINS_12basic_stringIcNS_11char_traitsIcEENS1_IcEEEEMN2UI4MenuEFvvEEEPvEEEEEELi1ELb1EE5__getB8ue170006Ev, symObjAddr: 0xE94, symBinAddr: 0x100006180, symSize: 0x14 }
  - { offsetInCU: 0x1453F, offset: 0x25C14, size: 0x8, addend: 0x0, symName: __ZNSt3__117__compressed_pairImNS_9allocatorIPNS_16__hash_node_baseIPNS_11__hash_nodeINS_17__hash_value_typeINS_12basic_stringIcNS_11char_traitsIcEENS1_IcEEEEMN2UI4MenuEFvvEEEPvEEEEEEE5firstB8ue170006Ev, symObjAddr: 0xEA8, symBinAddr: 0x100006194, symSize: 0x24 }
  - { offsetInCU: 0x14564, offset: 0x25C39, size: 0x8, addend: 0x0, symName: __ZNSt3__122__compressed_pair_elemImLi0ELb0EE5__getB8ue170006Ev, symObjAddr: 0xECC, symBinAddr: 0x1000061B8, symSize: 0x14 }
  - { offsetInCU: 0x14589, offset: 0x25C5E, size: 0x8, addend: 0x0, symName: __ZN9PortfolioD2Ev, symObjAddr: 0xEE0, symBinAddr: 0x1000061CC, symSize: 0x38 }
  - { offsetInCU: 0x145B4, offset: 0x25C89, size: 0x8, addend: 0x0, symName: __ZNSt3__113unordered_mapIj5StockNS_4hashIjEENS_8equal_toIjEENS_9allocatorINS_4pairIKjS1_EEEEED1B8ue170006Ev, symObjAddr: 0xF18, symBinAddr: 0x100006204, symSize: 0x2C }
  - { offsetInCU: 0x145DC, offset: 0x25CB1, size: 0x8, addend: 0x0, symName: __ZN13PortfolioDataD1Ev, symObjAddr: 0xF44, symBinAddr: 0x100006230, symSize: 0x2C }
  - { offsetInCU: 0x14607, offset: 0x25CDC, size: 0x8, addend: 0x0, symName: __ZNSt3__113unordered_mapIj5StockNS_4hashIjEENS_8equal_toIjEENS_9allocatorINS_4pairIKjS1_EEEEED2B8ue170006Ev, symObjAddr: 0xF70, symBinAddr: 0x10000625C, symSize: 0x2C }
  - { offsetInCU: 0x1462F, offset: 0x25D04, size: 0x8, addend: 0x0, symName: __ZNSt3__112__hash_tableINS_17__hash_value_typeIj5StockEENS_22__unordered_map_hasherIjS3_NS_4hashIjEENS_8equal_toIjEELb1EEENS_21__unordered_map_equalIjS3_S8_S6_Lb1EEENS_9allocatorIS3_EEED1Ev, symObjAddr: 0xF9C, symBinAddr: 0x100006288, symSize: 0x2C }
  - { offsetInCU: 0x14659, offset: 0x25D2E, size: 0x8, addend: 0x0, symName: __ZNSt3__112__hash_tableINS_17__hash_value_typeIj5StockEENS_22__unordered_map_hasherIjS3_NS_4hashIjEENS_8equal_toIjEELb1EEENS_21__unordered_map_equalIjS3_S8_S6_Lb1EEENS_9allocatorIS3_EEED2Ev, symObjAddr: 0xFC8, symBinAddr: 0x1000062B4, symSize: 0x48 }
  - { offsetInCU: 0x14683, offset: 0x25D58, size: 0x8, addend: 0x0, symName: __ZNSt3__112__hash_tableINS_17__hash_value_typeIj5StockEENS_22__unordered_map_hasherIjS3_NS_4hashIjEENS_8equal_toIjEELb1EEENS_21__unordered_map_equalIjS3_S8_S6_Lb1EEENS_9allocatorIS3_EEE17__deallocate_nodeEPNS_16__hash_node_baseIPNS_11__hash_nodeIS3_PvEEEE, symObjAddr: 0x1010, symBinAddr: 0x1000062FC, symSize: 0xA8 }
  - { offsetInCU: 0x146EB, offset: 0x25DC0, size: 0x8, addend: 0x0, symName: __ZNSt3__117__compressed_pairINS_16__hash_node_baseIPNS_11__hash_nodeINS_17__hash_value_typeIj5StockEEPvEEEENS_9allocatorIS7_EEE5firstB8ue170006Ev, symObjAddr: 0x10B8, symBinAddr: 0x1000063A4, symSize: 0x24 }
  - { offsetInCU: 0x14710, offset: 0x25DE5, size: 0x8, addend: 0x0, symName: __ZNSt3__110unique_ptrIA_PNS_16__hash_node_baseIPNS_11__hash_nodeINS_17__hash_value_typeIj5StockEEPvEEEENS_25__bucket_list_deallocatorINS_9allocatorISA_EEEEED1B8ue170006Ev, symObjAddr: 0x10DC, symBinAddr: 0x1000063C8, symSize: 0x2C }
  - { offsetInCU: 0x14738, offset: 0x25E0D, size: 0x8, addend: 0x0, symName: __ZNSt3__112__hash_tableINS_17__hash_value_typeIj5StockEENS_22__unordered_map_hasherIjS3_NS_4hashIjEENS_8equal_toIjEELb1EEENS_21__unordered_map_equalIjS3_S8_S6_Lb1EEENS_9allocatorIS3_EEE12__node_allocB8ue170006Ev, symObjAddr: 0x1108, symBinAddr: 0x1000063F4, symSize: 0x28 }
  - { offsetInCU: 0x1475D, offset: 0x25E32, size: 0x8, addend: 0x0, symName: __ZNSt3__116__hash_node_baseIPNS_11__hash_nodeINS_17__hash_value_typeIj5StockEEPvEEE8__upcastB8ue170006Ev, symObjAddr: 0x1130, symBinAddr: 0x10000641C, symSize: 0x24 }
  - { offsetInCU: 0x14787, offset: 0x25E5C, size: 0x8, addend: 0x0, symName: __ZNSt3__116allocator_traitsINS_9allocatorINS_11__hash_nodeINS_17__hash_value_typeIj5StockEEPvEEEEE7destroyB8ue170006INS_4pairIKjS4_EEvvEEvRS8_PT_, symObjAddr: 0x1154, symBinAddr: 0x100006440, symSize: 0x28 }
  - { offsetInCU: 0x147C2, offset: 0x25E97, size: 0x8, addend: 0x0, symName: __ZNSt3__122__hash_key_value_typesINS_17__hash_value_typeIj5StockEEE9__get_ptrB8ue170006ERS3_, symObjAddr: 0x117C, symBinAddr: 0x100006468, symSize: 0x24 }
  - { offsetInCU: 0x147E5, offset: 0x25EBA, size: 0x8, addend: 0x0, symName: __ZNSt3__116allocator_traitsINS_9allocatorINS_11__hash_nodeINS_17__hash_value_typeIj5StockEEPvEEEEE10deallocateB8ue170006ERS8_PS7_m, symObjAddr: 0x11A0, symBinAddr: 0x10000648C, symSize: 0x34 }
  - { offsetInCU: 0x14827, offset: 0x25EFC, size: 0x8, addend: 0x0, symName: __ZNSt3__117__compressed_pairINS_16__hash_node_baseIPNS_11__hash_nodeINS_17__hash_value_typeIj5StockEEPvEEEENS_9allocatorIS7_EEE6secondB8ue170006Ev, symObjAddr: 0x11D4, symBinAddr: 0x1000064C0, symSize: 0x24 }
  - { offsetInCU: 0x1484C, offset: 0x25F21, size: 0x8, addend: 0x0, symName: __ZNSt3__122__compressed_pair_elemINS_9allocatorINS_11__hash_nodeINS_17__hash_value_typeIj5StockEEPvEEEELi1ELb1EE5__getB8ue170006Ev, symObjAddr: 0x11F8, symBinAddr: 0x1000064E4, symSize: 0x14 }
  - { offsetInCU: 0x14871, offset: 0x25F46, size: 0x8, addend: 0x0, symName: __ZNSt3__114pointer_traitsIPNS_16__hash_node_baseIPNS_11__hash_nodeINS_17__hash_value_typeIj5StockEEPvEEEEE10pointer_toB8ue170006ERS9_, symObjAddr: 0x120C, symBinAddr: 0x1000064F8, symSize: 0x14 }
  - { offsetInCU: 0x14894, offset: 0x25F69, size: 0x8, addend: 0x0, symName: __ZNSt3__14pairIKj5StockED1Ev, symObjAddr: 0x1220, symBinAddr: 0x10000650C, symSize: 0x2C }
  - { offsetInCU: 0x148BF, offset: 0x25F94, size: 0x8, addend: 0x0, symName: __ZNSt3__14pairIKj5StockED2Ev, symObjAddr: 0x124C, symBinAddr: 0x100006538, symSize: 0x30 }
  - { offsetInCU: 0x148EA, offset: 0x25FBF, size: 0x8, addend: 0x0, symName: __ZN5StockD1Ev, symObjAddr: 0x127C, symBinAddr: 0x100006568, symSize: 0x2C }
  - { offsetInCU: 0x14915, offset: 0x25FEA, size: 0x8, addend: 0x0, symName: __ZN5StockD2Ev, symObjAddr: 0x12A8, symBinAddr: 0x100006594, symSize: 0x30 }
  - { offsetInCU: 0x14940, offset: 0x26015, size: 0x8, addend: 0x0, symName: __ZN9StockData14DailyOpenCloseD1Ev, symObjAddr: 0x12D8, symBinAddr: 0x1000065C4, symSize: 0x2C }
  - { offsetInCU: 0x1496B, offset: 0x26040, size: 0x8, addend: 0x0, symName: __ZN9StockData14DailyOpenCloseD2Ev, symObjAddr: 0x1304, symBinAddr: 0x1000065F0, symSize: 0x3C }
  - { offsetInCU: 0x14996, offset: 0x2606B, size: 0x8, addend: 0x0, symName: __ZNSt3__117__hash_value_typeIj5StockE11__get_valueB8ue170006Ev, symObjAddr: 0x1340, symBinAddr: 0x10000662C, symSize: 0x24 }
  - { offsetInCU: 0x149BB, offset: 0x26090, size: 0x8, addend: 0x0, symName: __ZNSt3__19allocatorINS_11__hash_nodeINS_17__hash_value_typeIj5StockEEPvEEE10deallocateB8ue170006EPS6_m, symObjAddr: 0x139C, symBinAddr: 0x100006688, symSize: 0x44 }
  - { offsetInCU: 0x149FC, offset: 0x260D1, size: 0x8, addend: 0x0, symName: __ZNSt3__122__compressed_pair_elemINS_16__hash_node_baseIPNS_11__hash_nodeINS_17__hash_value_typeIj5StockEEPvEEEELi0ELb0EE5__getB8ue170006Ev, symObjAddr: 0x13E0, symBinAddr: 0x1000066CC, symSize: 0x14 }
  - { offsetInCU: 0x14A21, offset: 0x260F6, size: 0x8, addend: 0x0, symName: __ZNSt3__110unique_ptrIA_PNS_16__hash_node_baseIPNS_11__hash_nodeINS_17__hash_value_typeIj5StockEEPvEEEENS_25__bucket_list_deallocatorINS_9allocatorISA_EEEEED2B8ue170006Ev, symObjAddr: 0x13F4, symBinAddr: 0x1000066E0, symSize: 0x30 }
  - { offsetInCU: 0x14A49, offset: 0x2611E, size: 0x8, addend: 0x0, symName: __ZNSt3__110unique_ptrIA_PNS_16__hash_node_baseIPNS_11__hash_nodeINS_17__hash_value_typeIj5StockEEPvEEEENS_25__bucket_list_deallocatorINS_9allocatorISA_EEEEE5resetB8ue170006EDn, symObjAddr: 0x1424, symBinAddr: 0x100006710, symSize: 0x6C }
  - { offsetInCU: 0x14A89, offset: 0x2615E, size: 0x8, addend: 0x0, symName: __ZNSt3__117__compressed_pairIPPNS_16__hash_node_baseIPNS_11__hash_nodeINS_17__hash_value_typeIj5StockEEPvEEEENS_25__bucket_list_deallocatorINS_9allocatorISA_EEEEE5firstB8ue170006Ev, symObjAddr: 0x1490, symBinAddr: 0x10000677C, symSize: 0x24 }
  - { offsetInCU: 0x14AAE, offset: 0x26183, size: 0x8, addend: 0x0, symName: __ZNSt3__117__compressed_pairIPPNS_16__hash_node_baseIPNS_11__hash_nodeINS_17__hash_value_typeIj5StockEEPvEEEENS_25__bucket_list_deallocatorINS_9allocatorISA_EEEEE6secondB8ue170006Ev, symObjAddr: 0x14B4, symBinAddr: 0x1000067A0, symSize: 0x28 }
  - { offsetInCU: 0x14AD3, offset: 0x261A8, size: 0x8, addend: 0x0, symName: __ZNSt3__125__bucket_list_deallocatorINS_9allocatorIPNS_16__hash_node_baseIPNS_11__hash_nodeINS_17__hash_value_typeIj5StockEEPvEEEEEEEclB8ue170006EPSB_, symObjAddr: 0x14DC, symBinAddr: 0x1000067C8, symSize: 0x58 }
  - { offsetInCU: 0x14B07, offset: 0x261DC, size: 0x8, addend: 0x0, symName: __ZNSt3__122__compressed_pair_elemIPPNS_16__hash_node_baseIPNS_11__hash_nodeINS_17__hash_value_typeIj5StockEEPvEEEELi0ELb0EE5__getB8ue170006Ev, symObjAddr: 0x1534, symBinAddr: 0x100006820, symSize: 0x14 }
  - { offsetInCU: 0x14B2C, offset: 0x26201, size: 0x8, addend: 0x0, symName: __ZNSt3__122__compressed_pair_elemINS_25__bucket_list_deallocatorINS_9allocatorIPNS_16__hash_node_baseIPNS_11__hash_nodeINS_17__hash_value_typeIj5StockEEPvEEEEEEEELi1ELb0EE5__getB8ue170006Ev, symObjAddr: 0x1548, symBinAddr: 0x100006834, symSize: 0x14 }
  - { offsetInCU: 0x14B51, offset: 0x26226, size: 0x8, addend: 0x0, symName: __ZNSt3__116allocator_traitsINS_9allocatorIPNS_16__hash_node_baseIPNS_11__hash_nodeINS_17__hash_value_typeIj5StockEEPvEEEEEEE10deallocateB8ue170006ERSC_PSB_m, symObjAddr: 0x155C, symBinAddr: 0x100006848, symSize: 0x34 }
  - { offsetInCU: 0x14B93, offset: 0x26268, size: 0x8, addend: 0x0, symName: __ZNSt3__125__bucket_list_deallocatorINS_9allocatorIPNS_16__hash_node_baseIPNS_11__hash_nodeINS_17__hash_value_typeIj5StockEEPvEEEEEEE7__allocB8ue170006Ev, symObjAddr: 0x1590, symBinAddr: 0x10000687C, symSize: 0x24 }
  - { offsetInCU: 0x14BB8, offset: 0x2628D, size: 0x8, addend: 0x0, symName: __ZNSt3__125__bucket_list_deallocatorINS_9allocatorIPNS_16__hash_node_baseIPNS_11__hash_nodeINS_17__hash_value_typeIj5StockEEPvEEEEEEE4sizeB8ue170006Ev, symObjAddr: 0x15B4, symBinAddr: 0x1000068A0, symSize: 0x24 }
  - { offsetInCU: 0x14BDD, offset: 0x262B2, size: 0x8, addend: 0x0, symName: __ZNSt3__19allocatorIPNS_16__hash_node_baseIPNS_11__hash_nodeINS_17__hash_value_typeIj5StockEEPvEEEEE10deallocateB8ue170006EPSA_m, symObjAddr: 0x15D8, symBinAddr: 0x1000068C4, symSize: 0x40 }
  - { offsetInCU: 0x14C1E, offset: 0x262F3, size: 0x8, addend: 0x0, symName: __ZNSt3__117__compressed_pairImNS_9allocatorIPNS_16__hash_node_baseIPNS_11__hash_nodeINS_17__hash_value_typeIj5StockEEPvEEEEEEE6secondB8ue170006Ev, symObjAddr: 0x1618, symBinAddr: 0x100006904, symSize: 0x24 }
  - { offsetInCU: 0x14C43, offset: 0x26318, size: 0x8, addend: 0x0, symName: __ZNSt3__122__compressed_pair_elemINS_9allocatorIPNS_16__hash_node_baseIPNS_11__hash_nodeINS_17__hash_value_typeIj5StockEEPvEEEEEELi1ELb1EE5__getB8ue170006Ev, symObjAddr: 0x163C, symBinAddr: 0x100006928, symSize: 0x14 }
  - { offsetInCU: 0x14C68, offset: 0x2633D, size: 0x8, addend: 0x0, symName: __ZNSt3__117__compressed_pairImNS_9allocatorIPNS_16__hash_node_baseIPNS_11__hash_nodeINS_17__hash_value_typeIj5StockEEPvEEEEEEE5firstB8ue170006Ev, symObjAddr: 0x1650, symBinAddr: 0x10000693C, symSize: 0x24 }
  - { offsetInCU: 0x14C8D, offset: 0x26362, size: 0x8, addend: 0x0, symName: __ZN13PortfolioDataD2Ev, symObjAddr: 0x1674, symBinAddr: 0x100006960, symSize: 0x3C }
  - { offsetInCU: 0x14CB8, offset: 0x2638D, size: 0x8, addend: 0x0, symName: __ZN7NetworkD2Ev, symObjAddr: 0x16B0, symBinAddr: 0x10000699C, symSize: 0x2C }
  - { offsetInCU: 0x14CE3, offset: 0x263B8, size: 0x8, addend: 0x0, symName: __ZNSt3__19allocatorIcEC1B8ue170006Ev, symObjAddr: 0x1838, symBinAddr: 0x100006A74, symSize: 0x2C }
  - { offsetInCU: 0x14D0B, offset: 0x263E0, size: 0x8, addend: 0x0, symName: __ZNSt3__14__fs10filesystem4pathC2B8ue170006INS_12basic_stringIcNS_11char_traitsIcEENS_9allocatorIcEEEEvEERKT_NS2_6formatE, symObjAddr: 0x1930, symBinAddr: 0x100006AA0, symSize: 0x68 }
  - { offsetInCU: 0x14D5D, offset: 0x26432, size: 0x8, addend: 0x0, symName: __ZNSt3__14__fs10filesystem8_PathCVTIcE15__append_sourceB8ue170006INS_12basic_stringIcNS_11char_traitsIcEENS_9allocatorIcEEEEEEvRSA_RKT_, symObjAddr: 0x1998, symBinAddr: 0x100006B08, symSize: 0x4C }
  - { offsetInCU: 0x14D99, offset: 0x2646E, size: 0x8, addend: 0x0, symName: __ZNSt3__14__fs10filesystem8_PathCVTIcE14__append_rangeB8ue170006IPKcEENS_9enable_ifIXsr31__has_forward_iterator_categoryIT_EE5valueEvE4typeERNS_12basic_stringIcNS_11char_traitsIcEENS_9allocatorIcEEEES8_S8_, symObjAddr: 0x19E4, symBinAddr: 0x100006B54, symSize: 0x34 }
  - { offsetInCU: 0x14DEE, offset: 0x264C3, size: 0x8, addend: 0x0, symName: __ZNSt3__14__fs10filesystem20__is_pathable_stringINS_12basic_stringIcNS_11char_traitsIcEENS_9allocatorIcEEEEvE13__range_beginB8ue170006ERKS8_, symObjAddr: 0x1A18, symBinAddr: 0x100006B88, symSize: 0x24 }
  - { offsetInCU: 0x14E11, offset: 0x264E6, size: 0x8, addend: 0x0, symName: __ZNSt3__14__fs10filesystem20__is_pathable_stringINS_12basic_stringIcNS_11char_traitsIcEENS_9allocatorIcEEEEvE11__range_endB8ue170006ERKS8_, symObjAddr: 0x1A3C, symBinAddr: 0x100006BAC, symSize: 0x3C }
  - { offsetInCU: 0x14E34, offset: 0x26509, size: 0x8, addend: 0x0, symName: __ZNSt3__112basic_stringIcNS_11char_traitsIcEENS_9allocatorIcEEE6appendB8ue170006IPKcLi0EEERS5_T_SA_, symObjAddr: 0x1A78, symBinAddr: 0x100006BE8, symSize: 0x1E4 }
  - { offsetInCU: 0x14EE7, offset: 0x265BC, size: 0x8, addend: 0x0, symName: __ZNKSt3__112basic_stringIcNS_11char_traitsIcEENS_9allocatorIcEEE8capacityB8ue170006Ev, symObjAddr: 0x1C5C, symBinAddr: 0x100006DCC, symSize: 0x54 }
  - { offsetInCU: 0x14F0C, offset: 0x265E1, size: 0x8, addend: 0x0, symName: __ZNKSt3__112basic_stringIcNS_11char_traitsIcEENS_9allocatorIcEEE15__addr_in_rangeB8ue170006IcEEbRKT_, symObjAddr: 0x1CDC, symBinAddr: 0x100006E4C, symSize: 0x6C }
  - { offsetInCU: 0x14F49, offset: 0x2661E, size: 0x8, addend: 0x0, symName: __ZNSt3__112basic_stringIcNS_11char_traitsIcEENS_9allocatorIcEEE25__grow_by_without_replaceB8ue170006Emmmmmm, symObjAddr: 0x1D48, symBinAddr: 0x100006EB8, symSize: 0x74 }
  - { offsetInCU: 0x14FC9, offset: 0x2669E, size: 0x8, addend: 0x0, symName: __ZNSt3__112basic_stringIcNS_11char_traitsIcEENS_9allocatorIcEEE13__get_pointerB8ue170006Ev, symObjAddr: 0x1DBC, symBinAddr: 0x100006F2C, symSize: 0x54 }
  - { offsetInCU: 0x14FEE, offset: 0x266C3, size: 0x8, addend: 0x0, symName: __ZNSt3__112basic_stringIcNS_11char_traitsIcEENS_9allocatorIcEEE10__set_sizeB8ue170006Em, symObjAddr: 0x1E34, symBinAddr: 0x100006F80, symSize: 0x54 }
  - { offsetInCU: 0x15022, offset: 0x266F7, size: 0x8, addend: 0x0, symName: __ZNSt3__112basic_stringIcNS_11char_traitsIcEENS_9allocatorIcEEE7__allocB8ue170006Ev, symObjAddr: 0x1E88, symBinAddr: 0x100006FD4, symSize: 0x24 }
  - { offsetInCU: 0x15047, offset: 0x2671C, size: 0x8, addend: 0x0, symName: __ZNSt3__112basic_stringIcNS_11char_traitsIcEENS_9allocatorIcEEEC1B8ue170006IPKcLi0EEET_S9_RKS4_, symObjAddr: 0x1EAC, symBinAddr: 0x100006FF8, symSize: 0x44 }
  - { offsetInCU: 0x150AB, offset: 0x26780, size: 0x8, addend: 0x0, symName: __ZNKSt3__112basic_stringIcNS_11char_traitsIcEENS_9allocatorIcEEE14__get_long_capB8ue170006Ev, symObjAddr: 0x1F18, symBinAddr: 0x10000703C, symSize: 0x30 }
  - { offsetInCU: 0x150E4, offset: 0x267B9, size: 0x8, addend: 0x0, symName: __ZNKSt3__16__lessIvvEclB8ue170006IPKcS4_EEbRKT_RKT0_, symObjAddr: 0x1FD0, symBinAddr: 0x1000070F4, symSize: 0x34 }
  - { offsetInCU: 0x15137, offset: 0x2680C, size: 0x8, addend: 0x0, symName: __ZNSt3__117__compressed_pairINS_12basic_stringIcNS_11char_traitsIcEENS_9allocatorIcEEE5__repES5_E6secondB8ue170006Ev, symObjAddr: 0x2118, symBinAddr: 0x100007128, symSize: 0x24 }
  - { offsetInCU: 0x1515C, offset: 0x26831, size: 0x8, addend: 0x0, symName: __ZNSt3__122__compressed_pair_elemINS_9allocatorIcEELi1ELb1EE5__getB8ue170006Ev, symObjAddr: 0x213C, symBinAddr: 0x10000714C, symSize: 0x14 }
  - { offsetInCU: 0x15181, offset: 0x26856, size: 0x8, addend: 0x0, symName: __ZNSt3__112basic_stringIcNS_11char_traitsIcEENS_9allocatorIcEEEC2B8ue170006IPKcLi0EEET_S9_RKS4_, symObjAddr: 0x2150, symBinAddr: 0x100007160, symSize: 0x50 }
  - { offsetInCU: 0x151E5, offset: 0x268BA, size: 0x8, addend: 0x0, symName: __ZNSt3__117__compressed_pairINS_12basic_stringIcNS_11char_traitsIcEENS_9allocatorIcEEE5__repES5_EC1B8ue170006INS_18__default_init_tagERKS5_EEOT_OT0_, symObjAddr: 0x21A0, symBinAddr: 0x1000071B0, symSize: 0x3C }
  - { offsetInCU: 0x1523B, offset: 0x26910, size: 0x8, addend: 0x0, symName: __ZNSt3__112basic_stringIcNS_11char_traitsIcEENS_9allocatorIcEEE6__initIPKcLi0EEEvT_S9_, symObjAddr: 0x21DC, symBinAddr: 0x1000071EC, symSize: 0x54 }
  - { offsetInCU: 0x1529D, offset: 0x26972, size: 0x8, addend: 0x0, symName: __ZNSt3__117__compressed_pairINS_12basic_stringIcNS_11char_traitsIcEENS_9allocatorIcEEE5__repES5_EC2B8ue170006INS_18__default_init_tagERKS5_EEOT_OT0_, symObjAddr: 0x2230, symBinAddr: 0x100007240, symSize: 0x40 }
  - { offsetInCU: 0x152F3, offset: 0x269C8, size: 0x8, addend: 0x0, symName: __ZNSt3__122__compressed_pair_elemINS_9allocatorIcEELi1ELb1EEC2B8ue170006IRKS2_vEEOT_, symObjAddr: 0x2270, symBinAddr: 0x100007280, symSize: 0x18 }
  - { offsetInCU: 0x15334, offset: 0x26A09, size: 0x8, addend: 0x0, symName: __ZNSt3__112basic_stringIcNS_11char_traitsIcEENS_9allocatorIcEEE16__init_with_sizeB8ue170006IPKcS8_EEvT_T0_m, symObjAddr: 0x2288, symBinAddr: 0x100007298, symSize: 0x144 }
  - { offsetInCU: 0x153C6, offset: 0x26A9B, size: 0x8, addend: 0x0, symName: __ZNKSt3__112basic_stringIcNS_11char_traitsIcEENS_9allocatorIcEEE20__throw_length_errorB8ue170006Ev, symObjAddr: 0x2478, symBinAddr: 0x1000073DC, symSize: 0x1C }
  - { offsetInCU: 0x153EB, offset: 0x26AC0, size: 0x8, addend: 0x0, symName: __ZNSt3__112basic_stringIcNS_11char_traitsIcEENS_9allocatorIcEEE13__fits_in_ssoB8ue170006Em, symObjAddr: 0x2494, symBinAddr: 0x1000073F8, symSize: 0x20 }
  - { offsetInCU: 0x1540F, offset: 0x26AE4, size: 0x8, addend: 0x0, symName: __ZNSt3__112basic_stringIcNS_11char_traitsIcEENS_9allocatorIcEEE11__recommendB8ue170006Em, symObjAddr: 0x24F4, symBinAddr: 0x100007458, symSize: 0x84 }
  - { offsetInCU: 0x15442, offset: 0x26B17, size: 0x8, addend: 0x0, symName: __ZNSt3__112basic_stringIcNS_11char_traitsIcEENS_9allocatorIcEEE16__begin_lifetimeB8ue170006EPcm, symObjAddr: 0x2578, symBinAddr: 0x1000074DC, symSize: 0x14 }
  - { offsetInCU: 0x15475, offset: 0x26B4A, size: 0x8, addend: 0x0, symName: __ZNSt3__112basic_stringIcNS_11char_traitsIcEENS_9allocatorIcEEE18__set_long_pointerB8ue170006EPc, symObjAddr: 0x258C, symBinAddr: 0x1000074F0, symSize: 0x38 }
  - { offsetInCU: 0x154A9, offset: 0x26B7E, size: 0x8, addend: 0x0, symName: __ZNSt3__112basic_stringIcNS_11char_traitsIcEENS_9allocatorIcEEE14__set_long_capB8ue170006Em, symObjAddr: 0x25C4, symBinAddr: 0x100007528, symSize: 0x70 }
  - { offsetInCU: 0x154DD, offset: 0x26BB2, size: 0x8, addend: 0x0, symName: __ZNSt12length_errorC1B8ue170006EPKc, symObjAddr: 0x2748, symBinAddr: 0x1000075FC, symSize: 0x34 }
  - { offsetInCU: 0x15513, offset: 0x26BE8, size: 0x8, addend: 0x0, symName: __ZNSt12length_errorC2B8ue170006EPKc, symObjAddr: 0x277C, symBinAddr: 0x100007630, symSize: 0x4C }
  - { offsetInCU: 0x15549, offset: 0x26C1E, size: 0x8, addend: 0x0, symName: __ZNSt3__19allocatorIcE8allocateB8ue170006Em, symObjAddr: 0x27C8, symBinAddr: 0x10000767C, symSize: 0x58 }
  - { offsetInCU: 0x1557C, offset: 0x26C51, size: 0x8, addend: 0x0, symName: __ZNSt3__112basic_stringIcNS_11char_traitsIcEENS_9allocatorIcEEE10__align_itB8ue170006ILm16EEEmm, symObjAddr: 0x2904, symBinAddr: 0x1000077B8, symSize: 0x1C }
  - { offsetInCU: 0x155AA, offset: 0x26C7F, size: 0x8, addend: 0x0, symName: __ZNKSt3__112basic_stringIcNS_11char_traitsIcEENS_9allocatorIcEEE6lengthB8ue170006Ev, symObjAddr: 0x29EC, symBinAddr: 0x1000077D4, symSize: 0x24 }
  - { offsetInCU: 0xF3EA, offset: 0x3610A, size: 0x8, addend: 0x0, symName: __ZNSt3__124__put_character_sequenceB8ue170006IcNS_11char_traitsIcEEEERNS_13basic_ostreamIT_T0_EES7_PKS4_m, symObjAddr: 0x7EA0, symBinAddr: 0x10000DE9C, symSize: 0x1EC }
  - { offsetInCU: 0x10300, offset: 0x37020, size: 0x8, addend: 0x0, symName: __ZNSt3__1neB8ue170006ERKNS_19__hash_map_iteratorINS_15__hash_iteratorIPNS_11__hash_nodeINS_17__hash_value_typeINS_12basic_stringIcNS_11char_traitsIcEENS_9allocatorIcEEEEMN2UI4MenuEFvvEEEPvEEEEEESL_, symObjAddr: 0x1448, symBinAddr: 0x100008B88, symSize: 0x30 }
  - { offsetInCU: 0x1033D, offset: 0x3705D, size: 0x8, addend: 0x0, symName: __ZNSt3__1lsB8ue170006INS_11char_traitsIcEEEERNS_13basic_ostreamIcT_EES6_PKc, symObjAddr: 0x1560, symBinAddr: 0x100008CA0, symSize: 0x48 }
  - { offsetInCU: 0x10383, offset: 0x370A3, size: 0x8, addend: 0x0, symName: __ZNSt3__1neB8ue170006ERKNS_19__hash_map_iteratorINS_15__hash_iteratorIPNS_11__hash_nodeINS_17__hash_value_typeIj5StockEEPvEEEEEESC_, symObjAddr: 0x19DC, symBinAddr: 0x100009020, symSize: 0x30 }
  - { offsetInCU: 0x103C0, offset: 0x370E0, size: 0x8, addend: 0x0, symName: __ZNSt3__1eqB8ue170006ERKNS_19__hash_map_iteratorINS_15__hash_iteratorIPNS_11__hash_nodeINS_17__hash_value_typeIj5StockEEPvEEEEEESC_, symObjAddr: 0x1AD4, symBinAddr: 0x1000090E4, symSize: 0x30 }
  - { offsetInCU: 0x103FD, offset: 0x3711D, size: 0x8, addend: 0x0, symName: __ZNSt3__1lsB8ue170006IcNS_11char_traitsIcEENS_9allocatorIcEEEERNS_13basic_ostreamIT_T0_EES9_RKNS_12basic_stringIS6_S7_T1_EE, symObjAddr: 0x1BB4, symBinAddr: 0x100009198, symSize: 0x4C }
  - { offsetInCU: 0x10455, offset: 0x37175, size: 0x8, addend: 0x0, symName: __ZNSt3__116__constrain_hashB8ue170006Emm, symObjAddr: 0x2F48, symBinAddr: 0x10000A17C, symSize: 0x98 }
  - { offsetInCU: 0x1048F, offset: 0x371AF, size: 0x8, addend: 0x0, symName: __ZNSt3__116__do_string_hashB8ue170006IPKcEEmT_S3_, symObjAddr: 0x5718, symBinAddr: 0x10000B8A8, symSize: 0x3C }
  - { offsetInCU: 0x104D5, offset: 0x371F5, size: 0x8, addend: 0x0, symName: __ZNSt3__110__loadwordB8ue170006ImEET_PKv, symObjAddr: 0x6160, symBinAddr: 0x10000C29C, symSize: 0x20 }
  - { offsetInCU: 0x10518, offset: 0x37238, size: 0x8, addend: 0x0, symName: __ZNSt3__14swapB8ue170006ImEENS_9enable_ifIXaasr21is_move_constructibleIT_EE5valuesr18is_move_assignableIS2_EE5valueEvE4typeERS2_S5_, symObjAddr: 0x631C, symBinAddr: 0x10000C458, symSize: 0x3C }
  - { offsetInCU: 0x10569, offset: 0x37289, size: 0x8, addend: 0x0, symName: __ZNSt3__110__loadwordB8ue170006IjEET_PKv, symObjAddr: 0x63AC, symBinAddr: 0x10000C4E8, symSize: 0x20 }
  - { offsetInCU: 0x105AC, offset: 0x372CC, size: 0x8, addend: 0x0, symName: __ZNSt3__17launderB8ue170006IKNS_4pairIKNS_12basic_stringIcNS_11char_traitsIcEENS_9allocatorIcEEEEMN2UI4MenuEFvvEEEEEPT_SG_, symObjAddr: 0x6570, symBinAddr: 0x10000C650, symSize: 0x24 }
  - { offsetInCU: 0x105E3, offset: 0x37303, size: 0x8, addend: 0x0, symName: __ZNSt3__19__launderB8ue170006IKNS_4pairIKNS_12basic_stringIcNS_11char_traitsIcEENS_9allocatorIcEEEEMN2UI4MenuEFvvEEEEEPT_SG_, symObjAddr: 0x6594, symBinAddr: 0x10000C674, symSize: 0x14 }
  - { offsetInCU: 0x1061B, offset: 0x3733B, size: 0x8, addend: 0x0, symName: __ZNSt3__13maxB8ue170006ImEERKT_S3_S3_, symObjAddr: 0x6678, symBinAddr: 0x10000C758, symSize: 0x2C }
  - { offsetInCU: 0x1065E, offset: 0x3737E, size: 0x8, addend: 0x0, symName: __ZNSt3__116__is_hash_power2B8ue170006Em, symObjAddr: 0x66A4, symBinAddr: 0x10000C784, symSize: 0x50 }
  - { offsetInCU: 0x1068A, offset: 0x373AA, size: 0x8, addend: 0x0, symName: __ZNSt3__1eqB8ue170006INS_9allocatorIcEEEEbRKNS_12basic_stringIcNS_11char_traitsIcEET_EES9_, symObjAddr: 0x6778, symBinAddr: 0x10000C858, symSize: 0x148 }
  - { offsetInCU: 0x106FD, offset: 0x3741D, size: 0x8, addend: 0x0, symName: __ZNSt3__116__next_hash_pow2B8ue170006Em, symObjAddr: 0x6D48, symBinAddr: 0x10000CE28, symSize: 0x6C }
  - { offsetInCU: 0x10729, offset: 0x37449, size: 0x8, addend: 0x0, symName: __ZNSt3__112__libcpp_clzB8ue170006Em, symObjAddr: 0x6FF0, symBinAddr: 0x10000CFEC, symSize: 0x1C }
  - { offsetInCU: 0x10755, offset: 0x37475, size: 0x8, addend: 0x0, symName: __ZNSt3__13maxB8ue170006ImNS_6__lessIvvEEEERKT_S5_S5_T0_, symObjAddr: 0x700C, symBinAddr: 0x10000D008, symSize: 0x54 }
  - { offsetInCU: 0x10814, offset: 0x37534, size: 0x8, addend: 0x0, symName: __ZNSt3__1neB8ue170006ERKNS_15__hash_iteratorIPNS_11__hash_nodeINS_17__hash_value_typeINS_12basic_stringIcNS_11char_traitsIcEENS_9allocatorIcEEEEMN2UI4MenuEFvvEEEPvEEEESJ_, symObjAddr: 0x7DD8, symBinAddr: 0x10000DDD4, symSize: 0x34 }
  - { offsetInCU: 0x10851, offset: 0x37571, size: 0x8, addend: 0x0, symName: __ZNSt3__1eqB8ue170006ERKNS_15__hash_iteratorIPNS_11__hash_nodeINS_17__hash_value_typeINS_12basic_stringIcNS_11char_traitsIcEENS_9allocatorIcEEEEMN2UI4MenuEFvvEEEPvEEEESJ_, symObjAddr: 0x7E0C, symBinAddr: 0x10000DE08, symSize: 0x30 }
  - { offsetInCU: 0x108C2, offset: 0x375E2, size: 0x8, addend: 0x0, symName: __ZNSt3__116__pad_and_outputB8ue170006IcNS_11char_traitsIcEEEENS_19ostreambuf_iteratorIT_T0_EES6_PKS4_S8_S8_RNS_8ios_baseES4_, symObjAddr: 0x80A8, symBinAddr: 0x10000E0A4, symSize: 0x240 }
  - { offsetInCU: 0x10991, offset: 0x376B1, size: 0x8, addend: 0x0, symName: __ZNSt3__112__to_addressB8ue170006IcEEPT_S2_, symObjAddr: 0x8518, symBinAddr: 0x10000E4A4, symSize: 0x14 }
  - { offsetInCU: 0x109F9, offset: 0x37719, size: 0x8, addend: 0x0, symName: __ZNSt3__1neB8ue170006ERKNS_15__hash_iteratorIPNS_11__hash_nodeINS_17__hash_value_typeIj5StockEEPvEEEESA_, symObjAddr: 0x8A2C, symBinAddr: 0x10000E898, symSize: 0x34 }
  - { offsetInCU: 0x10A36, offset: 0x37756, size: 0x8, addend: 0x0, symName: __ZNSt3__1eqB8ue170006ERKNS_15__hash_iteratorIPNS_11__hash_nodeINS_17__hash_value_typeIj5StockEEPvEEEESA_, symObjAddr: 0x8A60, symBinAddr: 0x10000E8CC, symSize: 0x30 }
  - { offsetInCU: 0x10AA7, offset: 0x377C7, size: 0x8, addend: 0x0, symName: __ZNSt3__17launderB8ue170006IKNS_4pairIKj5StockEEEEPT_S7_, symObjAddr: 0x8D90, symBinAddr: 0x10000EBFC, symSize: 0x24 }
  - { offsetInCU: 0x10ADE, offset: 0x377FE, size: 0x8, addend: 0x0, symName: __ZNSt3__19__launderB8ue170006IKNS_4pairIKj5StockEEEEPT_S7_, symObjAddr: 0x8DB4, symBinAddr: 0x10000EC20, symSize: 0x14 }
  - { offsetInCU: 0x13EBE, offset: 0x3ABDE, size: 0x8, addend: 0x0, symName: __ZN2UI4MenuC2ER7Network, symObjAddr: 0x0, symBinAddr: 0x1000077F8, symSize: 0x4F0 }
  - { offsetInCU: 0x13EF9, offset: 0x3AC19, size: 0x8, addend: 0x0, symName: __ZN9PortfolioC1Ev, symObjAddr: 0x4F0, symBinAddr: 0x100007CE8, symSize: 0x2C }
  - { offsetInCU: 0x13F21, offset: 0x3AC41, size: 0x8, addend: 0x0, symName: __ZNSt3__113unordered_mapINS_12basic_stringIcNS_11char_traitsIcEENS_9allocatorIcEEEEMN2UI4MenuEFvvENS_4hashIS6_EENS_8equal_toIS6_EENS4_INS_4pairIKS6_SA_EEEEEC1B8ue170006Ev, symObjAddr: 0x51C, symBinAddr: 0x100007D14, symSize: 0x2C }
  - { offsetInCU: 0x13F4E, offset: 0x3AC6E, size: 0x8, addend: 0x0, symName: __ZN9PortfolioC1ENSt3__112basic_stringIcNS0_11char_traitsIcEENS0_9allocatorIcEEEE, symObjAddr: 0x57C, symBinAddr: 0x100007D40, symSize: 0x34 }
  - { offsetInCU: 0x13F8F, offset: 0x3ACAF, size: 0x8, addend: 0x0, symName: __ZN9PortfolioaSEOS_, symObjAddr: 0x5B0, symBinAddr: 0x100007D74, symSize: 0x48 }
  - { offsetInCU: 0x13FBF, offset: 0x3ACDF, size: 0x8, addend: 0x0, symName: __ZN2UI4Menu8addStockEv, symObjAddr: 0x624, symBinAddr: 0x100007DBC, symSize: 0xA8 }
  - { offsetInCU: 0x1400F, offset: 0x3AD2F, size: 0x8, addend: 0x0, symName: __ZNSt3__14pairIKNS_12basic_stringIcNS_11char_traitsIcEENS_9allocatorIcEEEEMN2UI4MenuEFvvEEC1B8ue170006IRA4_KcSB_LPv0EEEOT_OT0_, symObjAddr: 0x6CC, symBinAddr: 0x100007E64, symSize: 0x3C }
  - { offsetInCU: 0x1406C, offset: 0x3AD8C, size: 0x8, addend: 0x0, symName: __ZN2UI4Menu9printHelpEv, symObjAddr: 0x708, symBinAddr: 0x100007EA0, symSize: 0x1C4 }
  - { offsetInCU: 0x14102, offset: 0x3AE22, size: 0x8, addend: 0x0, symName: __ZNSt3__14pairIKNS_12basic_stringIcNS_11char_traitsIcEENS_9allocatorIcEEEEMN2UI4MenuEFvvEEC1B8ue170006IRA5_KcSB_LPv0EEEOT_OT0_, symObjAddr: 0x8CC, symBinAddr: 0x100008064, symSize: 0x3C }
  - { offsetInCU: 0x1415F, offset: 0x3AE7F, size: 0x8, addend: 0x0, symName: __ZN2UI4Menu11removeStockEv, symObjAddr: 0x908, symBinAddr: 0x1000080A0, symSize: 0x174 }
  - { offsetInCU: 0x141B9, offset: 0x3AED9, size: 0x8, addend: 0x0, symName: __ZNSt3__14pairIKNS_12basic_stringIcNS_11char_traitsIcEENS_9allocatorIcEEEEMN2UI4MenuEFvvEEC1B8ue170006IRA7_KcSB_LPv0EEEOT_OT0_, symObjAddr: 0xA7C, symBinAddr: 0x100008214, symSize: 0x3C }
  - { offsetInCU: 0x14216, offset: 0x3AF36, size: 0x8, addend: 0x0, symName: __ZN2UI4Menu8updateUIEv, symObjAddr: 0xAB8, symBinAddr: 0x100008250, symSize: 0x21C }
  - { offsetInCU: 0x14292, offset: 0x3AFB2, size: 0x8, addend: 0x0, symName: __ZN2UI4Menu15renamePortfolioEv, symObjAddr: 0xCD4, symBinAddr: 0x10000846C, symSize: 0x80 }
  - { offsetInCU: 0x142B9, offset: 0x3AFD9, size: 0x8, addend: 0x0, symName: __ZN2UI4Menu13savePortfolioEv, symObjAddr: 0xD54, symBinAddr: 0x1000084EC, symSize: 0x48 }
  - { offsetInCU: 0x142E0, offset: 0x3B000, size: 0x8, addend: 0x0, symName: __ZN2UI4Menu13loadPortfolioEv, symObjAddr: 0xD9C, symBinAddr: 0x100008534, symSize: 0xEC }
  - { offsetInCU: 0x14315, offset: 0x3B035, size: 0x8, addend: 0x0, symName: __ZN2UI4Menu15createPortfolioEv, symObjAddr: 0xE88, symBinAddr: 0x100008620, symSize: 0xA4 }
  - { offsetInCU: 0x1433C, offset: 0x3B05C, size: 0x8, addend: 0x0, symName: __ZN2UI4Menu9resetMenuEv, symObjAddr: 0xF2C, symBinAddr: 0x1000086C4, symSize: 0x70 }
  - { offsetInCU: 0x14363, offset: 0x3B083, size: 0x8, addend: 0x0, symName: __ZN2UI4Menu14toggleAutoSaveEv, symObjAddr: 0xF9C, symBinAddr: 0x100008734, symSize: 0xC8 }
  - { offsetInCU: 0x143AE, offset: 0x3B0CE, size: 0x8, addend: 0x0, symName: __ZNSt3__14pairIKNS_12basic_stringIcNS_11char_traitsIcEENS_9allocatorIcEEEEMN2UI4MenuEFvvEEC1B8ue170006IRA9_KcSB_LPv0EEEOT_OT0_, symObjAddr: 0x1064, symBinAddr: 0x1000087FC, symSize: 0x3C }
  - { offsetInCU: 0x1440B, offset: 0x3B12B, size: 0x8, addend: 0x0, symName: __ZN2UI4Menu9viewStockEv, symObjAddr: 0x10A0, symBinAddr: 0x100008838, symSize: 0x160 }
  - { offsetInCU: 0x1444F, offset: 0x3B16F, size: 0x8, addend: 0x0, symName: __ZN2UI4Menu9setApiKeyEv, symObjAddr: 0x1200, symBinAddr: 0x100008998, symSize: 0xEC }
  - { offsetInCU: 0x14484, offset: 0x3B1A4, size: 0x8, addend: 0x0, symName: __ZNSt3__113unordered_mapINS_12basic_stringIcNS_11char_traitsIcEENS_9allocatorIcEEEEMN2UI4MenuEFvvENS_4hashIS6_EENS_8equal_toIS6_EENS4_INS_4pairIKS6_SA_EEEEEaSESt16initializer_listISH_E, symObjAddr: 0x1318, symBinAddr: 0x100008A84, symSize: 0x60 }
  - { offsetInCU: 0x144B9, offset: 0x3B1D9, size: 0x8, addend: 0x0, symName: __ZN2UI4MenuC1ER7Network, symObjAddr: 0x13A4, symBinAddr: 0x100008AE4, symSize: 0x34 }
  - { offsetInCU: 0x144F2, offset: 0x3B212, size: 0x8, addend: 0x0, symName: __ZNSt3__113unordered_mapINS_12basic_stringIcNS_11char_traitsIcEENS_9allocatorIcEEEEMN2UI4MenuEFvvENS_4hashIS6_EENS_8equal_toIS6_EENS4_INS_4pairIKS6_SA_EEEEE5beginB8ue170006Ev, symObjAddr: 0x13D8, symBinAddr: 0x100008B18, symSize: 0x38 }
  - { offsetInCU: 0x14517, offset: 0x3B237, size: 0x8, addend: 0x0, symName: __ZNSt3__113unordered_mapINS_12basic_stringIcNS_11char_traitsIcEENS_9allocatorIcEEEEMN2UI4MenuEFvvENS_4hashIS6_EENS_8equal_toIS6_EENS4_INS_4pairIKS6_SA_EEEEE3endB8ue170006Ev, symObjAddr: 0x1410, symBinAddr: 0x100008B50, symSize: 0x38 }
  - { offsetInCU: 0x1453C, offset: 0x3B25C, size: 0x8, addend: 0x0, symName: __ZNKSt3__119__hash_map_iteratorINS_15__hash_iteratorIPNS_11__hash_nodeINS_17__hash_value_typeINS_12basic_stringIcNS_11char_traitsIcEENS_9allocatorIcEEEEMN2UI4MenuEFvvEEEPvEEEEEdeB8ue170006Ev, symObjAddr: 0x1478, symBinAddr: 0x100008BB8, symSize: 0x28 }
  - { offsetInCU: 0x14561, offset: 0x3B281, size: 0x8, addend: 0x0, symName: __ZNSt3__14pairIKNS_12basic_stringIcNS_11char_traitsIcEENS_9allocatorIcEEEEMN2UI4MenuEFvvEEC1B8ue170006ERKSC_, symObjAddr: 0x14A0, symBinAddr: 0x100008BE0, symSize: 0x34 }
  - { offsetInCU: 0x14594, offset: 0x3B2B4, size: 0x8, addend: 0x0, symName: __ZN2UI7ElementC1ENSt3__112basic_stringIcNS1_11char_traitsIcEENS1_9allocatorIcEEEE, symObjAddr: 0x14D4, symBinAddr: 0x100008C14, symSize: 0x34 }
  - { offsetInCU: 0x145CB, offset: 0x3B2EB, size: 0x8, addend: 0x0, symName: __ZN2UI7ElementD1Ev, symObjAddr: 0x1508, symBinAddr: 0x100008C48, symSize: 0x2C }
  - { offsetInCU: 0x145F6, offset: 0x3B316, size: 0x8, addend: 0x0, symName: __ZNSt3__119__hash_map_iteratorINS_15__hash_iteratorIPNS_11__hash_nodeINS_17__hash_value_typeINS_12basic_stringIcNS_11char_traitsIcEENS_9allocatorIcEEEEMN2UI4MenuEFvvEEEPvEEEEEppB8ue170006Ev, symObjAddr: 0x1534, symBinAddr: 0x100008C74, symSize: 0x2C }
  - { offsetInCU: 0x1461B, offset: 0x3B33B, size: 0x8, addend: 0x0, symName: __ZN2UI4Menu9menuInputEv, symObjAddr: 0x15A8, symBinAddr: 0x100008CE8, symSize: 0x230 }
  - { offsetInCU: 0x14674, offset: 0x3B394, size: 0x8, addend: 0x0, symName: __ZNSt3__113unordered_mapINS_12basic_stringIcNS_11char_traitsIcEENS_9allocatorIcEEEEMN2UI4MenuEFvvENS_4hashIS6_EENS_8equal_toIS6_EENS4_INS_4pairIKS6_SA_EEEEE4findB8ue170006ERSG_, symObjAddr: 0x1804, symBinAddr: 0x100008F18, symSize: 0x40 }
  - { offsetInCU: 0x146A8, offset: 0x3B3C8, size: 0x8, addend: 0x0, symName: __ZNKSt3__119__hash_map_iteratorINS_15__hash_iteratorIPNS_11__hash_nodeINS_17__hash_value_typeINS_12basic_stringIcNS_11char_traitsIcEENS_9allocatorIcEEEEMN2UI4MenuEFvvEEEPvEEEEEptB8ue170006Ev, symObjAddr: 0x1844, symBinAddr: 0x100008F58, symSize: 0x2C }
  - { offsetInCU: 0x146CD, offset: 0x3B3ED, size: 0x8, addend: 0x0, symName: __ZNSt3__19basic_iosIcNS_11char_traitsIcEEE5clearB8ue170006Ej, symObjAddr: 0x1940, symBinAddr: 0x100008F84, symSize: 0x2C }
  - { offsetInCU: 0x14701, offset: 0x3B421, size: 0x8, addend: 0x0, symName: __ZNSt3__113unordered_mapIj5StockNS_4hashIjEENS_8equal_toIjEENS_9allocatorINS_4pairIKjS1_EEEEE5beginB8ue170006Ev, symObjAddr: 0x196C, symBinAddr: 0x100008FB0, symSize: 0x38 }
  - { offsetInCU: 0x14726, offset: 0x3B446, size: 0x8, addend: 0x0, symName: __ZNSt3__113unordered_mapIj5StockNS_4hashIjEENS_8equal_toIjEENS_9allocatorINS_4pairIKjS1_EEEEE3endB8ue170006Ev, symObjAddr: 0x19A4, symBinAddr: 0x100008FE8, symSize: 0x38 }
  - { offsetInCU: 0x1474B, offset: 0x3B46B, size: 0x8, addend: 0x0, symName: __ZNKSt3__119__hash_map_iteratorINS_15__hash_iteratorIPNS_11__hash_nodeINS_17__hash_value_typeIj5StockEEPvEEEEEdeB8ue170006Ev, symObjAddr: 0x1A0C, symBinAddr: 0x100009050, symSize: 0x28 }
  - { offsetInCU: 0x14770, offset: 0x3B490, size: 0x8, addend: 0x0, symName: __ZNSt3__119__hash_map_iteratorINS_15__hash_iteratorIPNS_11__hash_nodeINS_17__hash_value_typeIj5StockEEPvEEEEEppB8ue170006Ev, symObjAddr: 0x1A68, symBinAddr: 0x100009078, symSize: 0x2C }
  - { offsetInCU: 0x14795, offset: 0x3B4B5, size: 0x8, addend: 0x0, symName: __ZNSt3__113unordered_mapIj5StockNS_4hashIjEENS_8equal_toIjEENS_9allocatorINS_4pairIKjS1_EEEEE4findB8ue170006ERS8_, symObjAddr: 0x1A94, symBinAddr: 0x1000090A4, symSize: 0x40 }
  - { offsetInCU: 0x147C9, offset: 0x3B4E9, size: 0x8, addend: 0x0, symName: __ZNKSt3__119__hash_map_iteratorINS_15__hash_iteratorIPNS_11__hash_nodeINS_17__hash_value_typeIj5StockEEPvEEEEEptB8ue170006Ev, symObjAddr: 0x1B04, symBinAddr: 0x100009114, symSize: 0x2C }
  - { offsetInCU: 0x147EE, offset: 0x3B50E, size: 0x8, addend: 0x0, symName: __ZNSt3__113unordered_mapIj5StockNS_4hashIjEENS_8equal_toIjEENS_9allocatorINS_4pairIKjS1_EEEEE5eraseB8ue170006ENS_19__hash_map_iteratorINS_15__hash_iteratorIPNS_11__hash_nodeINS_17__hash_value_typeIjS1_EEPvEEEEEE, symObjAddr: 0x1B30, symBinAddr: 0x100009140, symSize: 0x58 }
  - { offsetInCU: 0x14822, offset: 0x3B542, size: 0x8, addend: 0x0, symName: __ZN9PortfolioC2Ev, symObjAddr: 0x1C00, symBinAddr: 0x1000091E4, symSize: 0x38 }
  - { offsetInCU: 0x1484A, offset: 0x3B56A, size: 0x8, addend: 0x0, symName: __ZN13PortfolioDataC1Ev, symObjAddr: 0x1C38, symBinAddr: 0x10000921C, symSize: 0x2C }
  - { offsetInCU: 0x14872, offset: 0x3B592, size: 0x8, addend: 0x0, symName: __ZNSt3__113unordered_mapIj5StockNS_4hashIjEENS_8equal_toIjEENS_9allocatorINS_4pairIKjS1_EEEEEC1B8ue170006Ev, symObjAddr: 0x1C64, symBinAddr: 0x100009248, symSize: 0x2C }
  - { offsetInCU: 0x1489A, offset: 0x3B5BA, size: 0x8, addend: 0x0, symName: __ZN13PortfolioDataC2Ev, symObjAddr: 0x1C90, symBinAddr: 0x100009274, symSize: 0x3C }
  - { offsetInCU: 0x148C2, offset: 0x3B5E2, size: 0x8, addend: 0x0, symName: __ZNSt3__113unordered_mapIj5StockNS_4hashIjEENS_8equal_toIjEENS_9allocatorINS_4pairIKjS1_EEEEEC2B8ue170006Ev, symObjAddr: 0x1CCC, symBinAddr: 0x1000092B0, symSize: 0x2C }
  - { offsetInCU: 0x148EA, offset: 0x3B60A, size: 0x8, addend: 0x0, symName: __ZNSt3__112__hash_tableINS_17__hash_value_typeIj5StockEENS_22__unordered_map_hasherIjS3_NS_4hashIjEENS_8equal_toIjEELb1EEENS_21__unordered_map_equalIjS3_S8_S6_Lb1EEENS_9allocatorIS3_EEEC1Ev, symObjAddr: 0x1CF8, symBinAddr: 0x1000092DC, symSize: 0x2C }
  - { offsetInCU: 0x14914, offset: 0x3B634, size: 0x8, addend: 0x0, symName: __ZNSt3__112__hash_tableINS_17__hash_value_typeIj5StockEENS_22__unordered_map_hasherIjS3_NS_4hashIjEENS_8equal_toIjEELb1EEENS_21__unordered_map_equalIjS3_S8_S6_Lb1EEENS_9allocatorIS3_EEEC2Ev, symObjAddr: 0x1D24, symBinAddr: 0x100009308, symSize: 0x7C }
  - { offsetInCU: 0x1493E, offset: 0x3B65E, size: 0x8, addend: 0x0, symName: __ZNSt3__110unique_ptrIA_PNS_16__hash_node_baseIPNS_11__hash_nodeINS_17__hash_value_typeIj5StockEEPvEEEENS_25__bucket_list_deallocatorINS_9allocatorISA_EEEEEC1B8ue170006ILb1EvEEv, symObjAddr: 0x1DA0, symBinAddr: 0x100009384, symSize: 0x2C }
  - { offsetInCU: 0x14971, offset: 0x3B691, size: 0x8, addend: 0x0, symName: __ZNSt3__117__compressed_pairINS_16__hash_node_baseIPNS_11__hash_nodeINS_17__hash_value_typeIj5StockEEPvEEEENS_9allocatorIS7_EEEC1B8ue170006ILb1EvEEv, symObjAddr: 0x1DCC, symBinAddr: 0x1000093B0, symSize: 0x2C }
  - { offsetInCU: 0x149AE, offset: 0x3B6CE, size: 0x8, addend: 0x0, symName: __ZNSt3__117__compressed_pairImNS_22__unordered_map_hasherIjNS_17__hash_value_typeIj5StockEENS_4hashIjEENS_8equal_toIjEELb1EEEEC1B8ue170006IiNS_18__default_init_tagEEEOT_OT0_, symObjAddr: 0x1E04, symBinAddr: 0x1000093DC, symSize: 0x3C }
  - { offsetInCU: 0x14A09, offset: 0x3B729, size: 0x8, addend: 0x0, symName: __ZNSt3__117__compressed_pairIfNS_21__unordered_map_equalIjNS_17__hash_value_typeIj5StockEENS_8equal_toIjEENS_4hashIjEELb1EEEEC1B8ue170006IfNS_18__default_init_tagEEEOT_OT0_, symObjAddr: 0x1E40, symBinAddr: 0x100009418, symSize: 0x3C }
  - { offsetInCU: 0x14A5F, offset: 0x3B77F, size: 0x8, addend: 0x0, symName: __ZNSt3__110unique_ptrIA_PNS_16__hash_node_baseIPNS_11__hash_nodeINS_17__hash_value_typeIj5StockEEPvEEEENS_25__bucket_list_deallocatorINS_9allocatorISA_EEEEEC2B8ue170006ILb1EvEEv, symObjAddr: 0x1E7C, symBinAddr: 0x100009454, symSize: 0x3C }
  - { offsetInCU: 0x14A97, offset: 0x3B7B7, size: 0x8, addend: 0x0, symName: __ZNSt3__117__compressed_pairIPPNS_16__hash_node_baseIPNS_11__hash_nodeINS_17__hash_value_typeIj5StockEEPvEEEENS_25__bucket_list_deallocatorINS_9allocatorISA_EEEEEC1B8ue170006INS_16__value_init_tagESI_EEOT_OT0_, symObjAddr: 0x1EB8, symBinAddr: 0x100009490, symSize: 0x3C }
  - { offsetInCU: 0x14AED, offset: 0x3B80D, size: 0x8, addend: 0x0, symName: __ZNSt3__117__compressed_pairIPPNS_16__hash_node_baseIPNS_11__hash_nodeINS_17__hash_value_typeIj5StockEEPvEEEENS_25__bucket_list_deallocatorINS_9allocatorISA_EEEEEC2B8ue170006INS_16__value_init_tagESI_EEOT_OT0_, symObjAddr: 0x1EF4, symBinAddr: 0x1000094CC, symSize: 0x40 }
  - { offsetInCU: 0x14B43, offset: 0x3B863, size: 0x8, addend: 0x0, symName: __ZNSt3__122__compressed_pair_elemIPPNS_16__hash_node_baseIPNS_11__hash_nodeINS_17__hash_value_typeIj5StockEEPvEEEELi0ELb0EEC2B8ue170006ENS_16__value_init_tagE, symObjAddr: 0x1F34, symBinAddr: 0x10000950C, symSize: 0x18 }
  - { offsetInCU: 0x14B77, offset: 0x3B897, size: 0x8, addend: 0x0, symName: __ZNSt3__122__compressed_pair_elemINS_25__bucket_list_deallocatorINS_9allocatorIPNS_16__hash_node_baseIPNS_11__hash_nodeINS_17__hash_value_typeIj5StockEEPvEEEEEEEELi1ELb0EEC2B8ue170006ENS_16__value_init_tagE, symObjAddr: 0x1F4C, symBinAddr: 0x100009524, symSize: 0x2C }
  - { offsetInCU: 0x14BAA, offset: 0x3B8CA, size: 0x8, addend: 0x0, symName: __ZNSt3__125__bucket_list_deallocatorINS_9allocatorIPNS_16__hash_node_baseIPNS_11__hash_nodeINS_17__hash_value_typeIj5StockEEPvEEEEEEEC1B8ue170006Ev, symObjAddr: 0x1F78, symBinAddr: 0x100009550, symSize: 0x2C }
  - { offsetInCU: 0x14BD2, offset: 0x3B8F2, size: 0x8, addend: 0x0, symName: __ZNSt3__125__bucket_list_deallocatorINS_9allocatorIPNS_16__hash_node_baseIPNS_11__hash_nodeINS_17__hash_value_typeIj5StockEEPvEEEEEEEC2B8ue170006Ev, symObjAddr: 0x1FA4, symBinAddr: 0x10000957C, symSize: 0x40 }
  - { offsetInCU: 0x14BFA, offset: 0x3B91A, size: 0x8, addend: 0x0, symName: __ZNSt3__117__compressed_pairImNS_9allocatorIPNS_16__hash_node_baseIPNS_11__hash_nodeINS_17__hash_value_typeIj5StockEEPvEEEEEEEC1B8ue170006IiNS_18__default_init_tagEEEOT_OT0_, symObjAddr: 0x1FE4, symBinAddr: 0x1000095BC, symSize: 0x3C }
  - { offsetInCU: 0x14C50, offset: 0x3B970, size: 0x8, addend: 0x0, symName: __ZNSt3__117__compressed_pairImNS_9allocatorIPNS_16__hash_node_baseIPNS_11__hash_nodeINS_17__hash_value_typeIj5StockEEPvEEEEEEEC2B8ue170006IiNS_18__default_init_tagEEEOT_OT0_, symObjAddr: 0x2020, symBinAddr: 0x1000095F8, symSize: 0x40 }
  - { offsetInCU: 0x14CA6, offset: 0x3B9C6, size: 0x8, addend: 0x0, symName: __ZNSt3__122__compressed_pair_elemImLi0ELb0EEC2B8ue170006IivEEOT_, symObjAddr: 0x2060, symBinAddr: 0x100009638, symSize: 0x24 }
  - { offsetInCU: 0x14CE7, offset: 0x3BA07, size: 0x8, addend: 0x0, symName: __ZNSt3__122__compressed_pair_elemINS_9allocatorIPNS_16__hash_node_baseIPNS_11__hash_nodeINS_17__hash_value_typeIj5StockEEPvEEEEEELi1ELb1EEC2B8ue170006ENS_18__default_init_tagE, symObjAddr: 0x2084, symBinAddr: 0x10000965C, symSize: 0x2C }
  - { offsetInCU: 0x14D1A, offset: 0x3BA3A, size: 0x8, addend: 0x0, symName: __ZNSt3__19allocatorIPNS_16__hash_node_baseIPNS_11__hash_nodeINS_17__hash_value_typeIj5StockEEPvEEEEEC2B8ue170006Ev, symObjAddr: 0x20B0, symBinAddr: 0x100009688, symSize: 0x2C }
  - { offsetInCU: 0x14D42, offset: 0x3BA62, size: 0x8, addend: 0x0, symName: __ZNSt3__116__non_trivial_ifILb1ENS_9allocatorIPNS_16__hash_node_baseIPNS_11__hash_nodeINS_17__hash_value_typeIj5StockEEPvEEEEEEEC2B8ue170006Ev, symObjAddr: 0x20DC, symBinAddr: 0x1000096B4, symSize: 0x14 }
  - { offsetInCU: 0x14D6B, offset: 0x3BA8B, size: 0x8, addend: 0x0, symName: __ZNSt3__117__compressed_pairINS_16__hash_node_baseIPNS_11__hash_nodeINS_17__hash_value_typeIj5StockEEPvEEEENS_9allocatorIS7_EEEC2B8ue170006ILb1EvEEv, symObjAddr: 0x20F0, symBinAddr: 0x1000096C8, symSize: 0x34 }
  - { offsetInCU: 0x14D9E, offset: 0x3BABE, size: 0x8, addend: 0x0, symName: __ZNSt3__122__compressed_pair_elemINS_16__hash_node_baseIPNS_11__hash_nodeINS_17__hash_value_typeIj5StockEEPvEEEELi0ELb0EEC2B8ue170006ENS_16__value_init_tagE, symObjAddr: 0x2124, symBinAddr: 0x1000096FC, symSize: 0x2C }
  - { offsetInCU: 0x14DD1, offset: 0x3BAF1, size: 0x8, addend: 0x0, symName: __ZNSt3__122__compressed_pair_elemINS_9allocatorINS_11__hash_nodeINS_17__hash_value_typeIj5StockEEPvEEEELi1ELb1EEC2B8ue170006ENS_16__value_init_tagE, symObjAddr: 0x2150, symBinAddr: 0x100009728, symSize: 0x2C }
  - { offsetInCU: 0x14E04, offset: 0x3BB24, size: 0x8, addend: 0x0, symName: __ZNSt3__116__hash_node_baseIPNS_11__hash_nodeINS_17__hash_value_typeIj5StockEEPvEEEC1B8ue170006Ev, symObjAddr: 0x217C, symBinAddr: 0x100009754, symSize: 0x2C }
  - { offsetInCU: 0x14E2C, offset: 0x3BB4C, size: 0x8, addend: 0x0, symName: __ZNSt3__116__hash_node_baseIPNS_11__hash_nodeINS_17__hash_value_typeIj5StockEEPvEEEC2B8ue170006Ev, symObjAddr: 0x21A8, symBinAddr: 0x100009780, symSize: 0x18 }
  - { offsetInCU: 0x14E55, offset: 0x3BB75, size: 0x8, addend: 0x0, symName: __ZNSt3__19allocatorINS_11__hash_nodeINS_17__hash_value_typeIj5StockEEPvEEEC2B8ue170006Ev, symObjAddr: 0x21C0, symBinAddr: 0x100009798, symSize: 0x2C }
  - { offsetInCU: 0x14E7D, offset: 0x3BB9D, size: 0x8, addend: 0x0, symName: __ZNSt3__116__non_trivial_ifILb1ENS_9allocatorINS_11__hash_nodeINS_17__hash_value_typeIj5StockEEPvEEEEEC2B8ue170006Ev, symObjAddr: 0x21EC, symBinAddr: 0x1000097C4, symSize: 0x14 }
  - { offsetInCU: 0x14EA6, offset: 0x3BBC6, size: 0x8, addend: 0x0, symName: __ZNSt3__117__compressed_pairImNS_22__unordered_map_hasherIjNS_17__hash_value_typeIj5StockEENS_4hashIjEENS_8equal_toIjEELb1EEEEC2B8ue170006IiNS_18__default_init_tagEEEOT_OT0_, symObjAddr: 0x2200, symBinAddr: 0x1000097D8, symSize: 0x40 }
  - { offsetInCU: 0x14EFC, offset: 0x3BC1C, size: 0x8, addend: 0x0, symName: __ZNSt3__122__compressed_pair_elemINS_22__unordered_map_hasherIjNS_17__hash_value_typeIj5StockEENS_4hashIjEENS_8equal_toIjEELb1EEELi1ELb1EEC2B8ue170006ENS_18__default_init_tagE, symObjAddr: 0x2240, symBinAddr: 0x100009818, symSize: 0x2C }
  - { offsetInCU: 0x14F2F, offset: 0x3BC4F, size: 0x8, addend: 0x0, symName: __ZNSt3__122__unordered_map_hasherIjNS_17__hash_value_typeIj5StockEENS_4hashIjEENS_8equal_toIjEELb1EEC2B8ue170006Ev, symObjAddr: 0x226C, symBinAddr: 0x100009844, symSize: 0x14 }
  - { offsetInCU: 0x14F58, offset: 0x3BC78, size: 0x8, addend: 0x0, symName: __ZNSt3__117__compressed_pairIfNS_21__unordered_map_equalIjNS_17__hash_value_typeIj5StockEENS_8equal_toIjEENS_4hashIjEELb1EEEEC2B8ue170006IfNS_18__default_init_tagEEEOT_OT0_, symObjAddr: 0x2280, symBinAddr: 0x100009858, symSize: 0x40 }
  - { offsetInCU: 0x14FAE, offset: 0x3BCCE, size: 0x8, addend: 0x0, symName: __ZNSt3__122__compressed_pair_elemIfLi0ELb0EEC2B8ue170006IfvEEOT_, symObjAddr: 0x22C0, symBinAddr: 0x100009898, symSize: 0x24 }
  - { offsetInCU: 0x14FEF, offset: 0x3BD0F, size: 0x8, addend: 0x0, symName: __ZNSt3__122__compressed_pair_elemINS_21__unordered_map_equalIjNS_17__hash_value_typeIj5StockEENS_8equal_toIjEENS_4hashIjEELb1EEELi1ELb1EEC2B8ue170006ENS_18__default_init_tagE, symObjAddr: 0x22E4, symBinAddr: 0x1000098BC, symSize: 0x2C }
  - { offsetInCU: 0x15022, offset: 0x3BD42, size: 0x8, addend: 0x0, symName: __ZNSt3__121__unordered_map_equalIjNS_17__hash_value_typeIj5StockEENS_8equal_toIjEENS_4hashIjEELb1EEC2B8ue170006Ev, symObjAddr: 0x2310, symBinAddr: 0x1000098E8, symSize: 0x14 }
  - { offsetInCU: 0x1504B, offset: 0x3BD6B, size: 0x8, addend: 0x0, symName: __ZN9PortfolioC2ENSt3__112basic_stringIcNS0_11char_traitsIcEENS0_9allocatorIcEEEE, symObjAddr: 0x2324, symBinAddr: 0x1000098FC, symSize: 0x80 }
  - { offsetInCU: 0x15082, offset: 0x3BDA2, size: 0x8, addend: 0x0, symName: __ZN13PortfolioDataC1ENSt3__112basic_stringIcNS0_11char_traitsIcEENS0_9allocatorIcEEEE, symObjAddr: 0x23A4, symBinAddr: 0x10000997C, symSize: 0x34 }
  - { offsetInCU: 0x150B9, offset: 0x3BDD9, size: 0x8, addend: 0x0, symName: __ZN13PortfolioDataC2ENSt3__112basic_stringIcNS0_11char_traitsIcEENS0_9allocatorIcEEEE, symObjAddr: 0x23D8, symBinAddr: 0x1000099B0, symSize: 0x78 }
  - { offsetInCU: 0x150FA, offset: 0x3BE1A, size: 0x8, addend: 0x0, symName: __ZN13PortfolioDataaSEOS_, symObjAddr: 0x2450, symBinAddr: 0x100009A28, symSize: 0x6C }
  - { offsetInCU: 0x1512A, offset: 0x3BE4A, size: 0x8, addend: 0x0, symName: __ZNSt3__113unordered_mapIj5StockNS_4hashIjEENS_8equal_toIjEENS_9allocatorINS_4pairIKjS1_EEEEEaSEOSB_, symObjAddr: 0x24BC, symBinAddr: 0x100009A94, symSize: 0x34 }
  - { offsetInCU: 0x1515F, offset: 0x3BE7F, size: 0x8, addend: 0x0, symName: __ZNSt3__112basic_stringIcNS_11char_traitsIcEENS_9allocatorIcEEEaSB8ue170006EOS5_, symObjAddr: 0x24F0, symBinAddr: 0x100009AC8, symSize: 0x34 }
  - { offsetInCU: 0x15193, offset: 0x3BEB3, size: 0x8, addend: 0x0, symName: __ZNSt3__112basic_stringIcNS_11char_traitsIcEENS_9allocatorIcEEE13__move_assignB8ue170006ERS5_NS_17integral_constantIbLb1EEE, symObjAddr: 0x2524, symBinAddr: 0x100009AFC, symSize: 0xC8 }
  - { offsetInCU: 0x151D4, offset: 0x3BEF4, size: 0x8, addend: 0x0, symName: __ZNSt3__116allocator_traitsINS_9allocatorIcEEE10deallocateB8ue170006ERS2_Pcm, symObjAddr: 0x2624, symBinAddr: 0x100009BC4, symSize: 0x34 }
  - { offsetInCU: 0x15216, offset: 0x3BF36, size: 0x8, addend: 0x0, symName: __ZNSt3__112basic_stringIcNS_11char_traitsIcEENS_9allocatorIcEEE19__move_assign_allocB8ue170006ERS5_, symObjAddr: 0x26D4, symBinAddr: 0x100009BF8, symSize: 0x2C }
  - { offsetInCU: 0x1524A, offset: 0x3BF6A, size: 0x8, addend: 0x0, symName: __ZNSt3__19allocatorIcE10deallocateB8ue170006EPcm, symObjAddr: 0x2820, symBinAddr: 0x100009C24, symSize: 0x40 }
  - { offsetInCU: 0x1528B, offset: 0x3BFAB, size: 0x8, addend: 0x0, symName: __ZNSt3__112basic_stringIcNS_11char_traitsIcEENS_9allocatorIcEEE19__move_assign_allocB8ue170006ERS5_NS_17integral_constantIbLb1EEE, symObjAddr: 0x29C0, symBinAddr: 0x100009C64, symSize: 0x38 }
  - { offsetInCU: 0x152CB, offset: 0x3BFEB, size: 0x8, addend: 0x0, symName: __ZNSt3__112__hash_tableINS_17__hash_value_typeIj5StockEENS_22__unordered_map_hasherIjS3_NS_4hashIjEENS_8equal_toIjEELb1EEENS_21__unordered_map_equalIjS3_S8_S6_Lb1EEENS_9allocatorIS3_EEEaSEOSE_, symObjAddr: 0x2A20, symBinAddr: 0x100009C9C, symSize: 0x34 }
  - { offsetInCU: 0x15300, offset: 0x3C020, size: 0x8, addend: 0x0, symName: __ZNSt3__112__hash_tableINS_17__hash_value_typeIj5StockEENS_22__unordered_map_hasherIjS3_NS_4hashIjEENS_8equal_toIjEELb1EEENS_21__unordered_map_equalIjS3_S8_S6_Lb1EEENS_9allocatorIS3_EEE13__move_assignERSE_NS_17integral_constantIbLb1EEE, symObjAddr: 0x2A54, symBinAddr: 0x100009CD0, symSize: 0x1CC }
  - { offsetInCU: 0x15341, offset: 0x3C061, size: 0x8, addend: 0x0, symName: __ZNSt3__112__hash_tableINS_17__hash_value_typeIj5StockEENS_22__unordered_map_hasherIjS3_NS_4hashIjEENS_8equal_toIjEELb1EEENS_21__unordered_map_equalIjS3_S8_S6_Lb1EEENS_9allocatorIS3_EEE5clearEv, symObjAddr: 0x2C20, symBinAddr: 0x100009E9C, symSize: 0xDC }
  - { offsetInCU: 0x15391, offset: 0x3C0B1, size: 0x8, addend: 0x0, symName: __ZNSt3__110unique_ptrIA_PNS_16__hash_node_baseIPNS_11__hash_nodeINS_17__hash_value_typeIj5StockEEPvEEEENS_25__bucket_list_deallocatorINS_9allocatorISA_EEEEE5resetB8ue170006IPSA_EENS_9enable_ifIXsr28_CheckArrayPointerConversionIT_EE5valueEvE4typeESK_, symObjAddr: 0x2CFC, symBinAddr: 0x100009F78, symSize: 0x78 }
  - { offsetInCU: 0x153DD, offset: 0x3C0FD, size: 0x8, addend: 0x0, symName: __ZNSt3__110unique_ptrIA_PNS_16__hash_node_baseIPNS_11__hash_nodeINS_17__hash_value_typeIj5StockEEPvEEEENS_25__bucket_list_deallocatorINS_9allocatorISA_EEEEE7releaseB8ue170006Ev, symObjAddr: 0x2D74, symBinAddr: 0x100009FF0, symSize: 0x44 }
  - { offsetInCU: 0x15411, offset: 0x3C131, size: 0x8, addend: 0x0, symName: __ZNSt3__110unique_ptrIA_PNS_16__hash_node_baseIPNS_11__hash_nodeINS_17__hash_value_typeIj5StockEEPvEEEENS_25__bucket_list_deallocatorINS_9allocatorISA_EEEEE11get_deleterB8ue170006Ev, symObjAddr: 0x2DB8, symBinAddr: 0x10000A034, symSize: 0x24 }
  - { offsetInCU: 0x15436, offset: 0x3C156, size: 0x8, addend: 0x0, symName: __ZNSt3__112__hash_tableINS_17__hash_value_typeIj5StockEENS_22__unordered_map_hasherIjS3_NS_4hashIjEENS_8equal_toIjEELb1EEENS_21__unordered_map_equalIjS3_S8_S6_Lb1EEENS_9allocatorIS3_EEE19__move_assign_allocB8ue170006ERSE_, symObjAddr: 0x2E00, symBinAddr: 0x10000A058, symSize: 0x2C }
  - { offsetInCU: 0x1546A, offset: 0x3C18A, size: 0x8, addend: 0x0, symName: __ZNSt3__112__hash_tableINS_17__hash_value_typeIj5StockEENS_22__unordered_map_hasherIjS3_NS_4hashIjEENS_8equal_toIjEELb1EEENS_21__unordered_map_equalIjS3_S8_S6_Lb1EEENS_9allocatorIS3_EEE4sizeB8ue170006Ev, symObjAddr: 0x2E2C, symBinAddr: 0x10000A084, symSize: 0x28 }
  - { offsetInCU: 0x1548F, offset: 0x3C1AF, size: 0x8, addend: 0x0, symName: __ZNSt3__112__hash_tableINS_17__hash_value_typeIj5StockEENS_22__unordered_map_hasherIjS3_NS_4hashIjEENS_8equal_toIjEELb1EEENS_21__unordered_map_equalIjS3_S8_S6_Lb1EEENS_9allocatorIS3_EEE13hash_functionB8ue170006Ev, symObjAddr: 0x2E54, symBinAddr: 0x10000A0AC, symSize: 0x28 }
  - { offsetInCU: 0x154B4, offset: 0x3C1D4, size: 0x8, addend: 0x0, symName: __ZNSt3__112__hash_tableINS_17__hash_value_typeIj5StockEENS_22__unordered_map_hasherIjS3_NS_4hashIjEENS_8equal_toIjEELb1EEENS_21__unordered_map_equalIjS3_S8_S6_Lb1EEENS_9allocatorIS3_EEE15max_load_factorB8ue170006Ev, symObjAddr: 0x2E7C, symBinAddr: 0x10000A0D4, symSize: 0x28 }
  - { offsetInCU: 0x154D9, offset: 0x3C1F9, size: 0x8, addend: 0x0, symName: __ZNSt3__112__hash_tableINS_17__hash_value_typeIj5StockEENS_22__unordered_map_hasherIjS3_NS_4hashIjEENS_8equal_toIjEELb1EEENS_21__unordered_map_equalIjS3_S8_S6_Lb1EEENS_9allocatorIS3_EEE6key_eqB8ue170006Ev, symObjAddr: 0x2EA4, symBinAddr: 0x10000A0FC, symSize: 0x28 }
  - { offsetInCU: 0x154FE, offset: 0x3C21E, size: 0x8, addend: 0x0, symName: __ZNSt3__116__hash_node_baseIPNS_11__hash_nodeINS_17__hash_value_typeIj5StockEEPvEEE5__ptrB8ue170006Ev, symObjAddr: 0x2EF0, symBinAddr: 0x10000A124, symSize: 0x24 }
  - { offsetInCU: 0x15523, offset: 0x3C243, size: 0x8, addend: 0x0, symName: __ZNKSt3__110unique_ptrIA_PNS_16__hash_node_baseIPNS_11__hash_nodeINS_17__hash_value_typeIj5StockEEPvEEEENS_25__bucket_list_deallocatorINS_9allocatorISA_EEEEEixB8ue170006Em, symObjAddr: 0x2F14, symBinAddr: 0x10000A148, symSize: 0x34 }
  - { offsetInCU: 0x15557, offset: 0x3C277, size: 0x8, addend: 0x0, symName: __ZNKSt3__116__hash_node_baseIPNS_11__hash_nodeINS_17__hash_value_typeIj5StockEEPvEEE6__hashB8ue170006Ev, symObjAddr: 0x2FE0, symBinAddr: 0x10000A214, symSize: 0x18 }
  - { offsetInCU: 0x1557C, offset: 0x3C29C, size: 0x8, addend: 0x0, symName: __ZNKSt3__112__hash_tableINS_17__hash_value_typeIj5StockEENS_22__unordered_map_hasherIjS3_NS_4hashIjEENS_8equal_toIjEELb1EEENS_21__unordered_map_equalIjS3_S8_S6_Lb1EEENS_9allocatorIS3_EEE12bucket_countB8ue170006Ev, symObjAddr: 0x2FF8, symBinAddr: 0x10000A22C, symSize: 0x28 }
  - { offsetInCU: 0x155A1, offset: 0x3C2C1, size: 0x8, addend: 0x0, symName: __ZNSt3__112__hash_tableINS_17__hash_value_typeIj5StockEENS_22__unordered_map_hasherIjS3_NS_4hashIjEENS_8equal_toIjEELb1EEENS_21__unordered_map_equalIjS3_S8_S6_Lb1EEENS_9allocatorIS3_EEE19__move_assign_allocB8ue170006ERSE_NS_17integral_constantIbLb1EEE, symObjAddr: 0x34B0, symBinAddr: 0x10000A254, symSize: 0x50 }
  - { offsetInCU: 0x155E1, offset: 0x3C301, size: 0x8, addend: 0x0, symName: __ZNSt3__117__compressed_pairImNS_22__unordered_map_hasherIjNS_17__hash_value_typeIj5StockEENS_4hashIjEENS_8equal_toIjEELb1EEEE5firstB8ue170006Ev, symObjAddr: 0x3500, symBinAddr: 0x10000A2A4, symSize: 0x24 }
  - { offsetInCU: 0x15606, offset: 0x3C326, size: 0x8, addend: 0x0, symName: __ZNSt3__117__compressed_pairImNS_22__unordered_map_hasherIjNS_17__hash_value_typeIj5StockEENS_4hashIjEENS_8equal_toIjEELb1EEEE6secondB8ue170006Ev, symObjAddr: 0x3524, symBinAddr: 0x10000A2C8, symSize: 0x24 }
  - { offsetInCU: 0x1562B, offset: 0x3C34B, size: 0x8, addend: 0x0, symName: __ZNSt3__122__compressed_pair_elemINS_22__unordered_map_hasherIjNS_17__hash_value_typeIj5StockEENS_4hashIjEENS_8equal_toIjEELb1EEELi1ELb1EE5__getB8ue170006Ev, symObjAddr: 0x3548, symBinAddr: 0x10000A2EC, symSize: 0x14 }
  - { offsetInCU: 0x15650, offset: 0x3C370, size: 0x8, addend: 0x0, symName: __ZNSt3__117__compressed_pairIfNS_21__unordered_map_equalIjNS_17__hash_value_typeIj5StockEENS_8equal_toIjEENS_4hashIjEELb1EEEE5firstB8ue170006Ev, symObjAddr: 0x355C, symBinAddr: 0x10000A300, symSize: 0x24 }
  - { offsetInCU: 0x15675, offset: 0x3C395, size: 0x8, addend: 0x0, symName: __ZNSt3__122__compressed_pair_elemIfLi0ELb0EE5__getB8ue170006Ev, symObjAddr: 0x3580, symBinAddr: 0x10000A324, symSize: 0x14 }
  - { offsetInCU: 0x1569A, offset: 0x3C3BA, size: 0x8, addend: 0x0, symName: __ZNSt3__117__compressed_pairIfNS_21__unordered_map_equalIjNS_17__hash_value_typeIj5StockEENS_8equal_toIjEENS_4hashIjEELb1EEEE6secondB8ue170006Ev, symObjAddr: 0x3594, symBinAddr: 0x10000A338, symSize: 0x24 }
  - { offsetInCU: 0x156BF, offset: 0x3C3DF, size: 0x8, addend: 0x0, symName: __ZNSt3__122__compressed_pair_elemINS_21__unordered_map_equalIjNS_17__hash_value_typeIj5StockEENS_8equal_toIjEENS_4hashIjEELb1EEELi1ELb1EE5__getB8ue170006Ev, symObjAddr: 0x35B8, symBinAddr: 0x10000A35C, symSize: 0x14 }
  - { offsetInCU: 0x156E4, offset: 0x3C404, size: 0x8, addend: 0x0, symName: __ZNKSt3__117__compressed_pairIPPNS_16__hash_node_baseIPNS_11__hash_nodeINS_17__hash_value_typeIj5StockEEPvEEEENS_25__bucket_list_deallocatorINS_9allocatorISA_EEEEE5firstB8ue170006Ev, symObjAddr: 0x35E0, symBinAddr: 0x10000A370, symSize: 0x24 }
  - { offsetInCU: 0x15709, offset: 0x3C429, size: 0x8, addend: 0x0, symName: __ZNKSt3__122__compressed_pair_elemIPPNS_16__hash_node_baseIPNS_11__hash_nodeINS_17__hash_value_typeIj5StockEEPvEEEELi0ELb0EE5__getB8ue170006Ev, symObjAddr: 0x3604, symBinAddr: 0x10000A394, symSize: 0x14 }
  - { offsetInCU: 0x1572E, offset: 0x3C44E, size: 0x8, addend: 0x0, symName: __ZNKSt3__110unique_ptrIA_PNS_16__hash_node_baseIPNS_11__hash_nodeINS_17__hash_value_typeIj5StockEEPvEEEENS_25__bucket_list_deallocatorINS_9allocatorISA_EEEEE11get_deleterB8ue170006Ev, symObjAddr: 0x3618, symBinAddr: 0x10000A3A8, symSize: 0x24 }
  - { offsetInCU: 0x15753, offset: 0x3C473, size: 0x8, addend: 0x0, symName: __ZNKSt3__125__bucket_list_deallocatorINS_9allocatorIPNS_16__hash_node_baseIPNS_11__hash_nodeINS_17__hash_value_typeIj5StockEEPvEEEEEEE4sizeB8ue170006Ev, symObjAddr: 0x363C, symBinAddr: 0x10000A3CC, symSize: 0x28 }
  - { offsetInCU: 0x15778, offset: 0x3C498, size: 0x8, addend: 0x0, symName: __ZNKSt3__117__compressed_pairIPPNS_16__hash_node_baseIPNS_11__hash_nodeINS_17__hash_value_typeIj5StockEEPvEEEENS_25__bucket_list_deallocatorINS_9allocatorISA_EEEEE6secondB8ue170006Ev, symObjAddr: 0x3664, symBinAddr: 0x10000A3F4, symSize: 0x28 }
  - { offsetInCU: 0x1579D, offset: 0x3C4BD, size: 0x8, addend: 0x0, symName: __ZNKSt3__122__compressed_pair_elemINS_25__bucket_list_deallocatorINS_9allocatorIPNS_16__hash_node_baseIPNS_11__hash_nodeINS_17__hash_value_typeIj5StockEEPvEEEEEEEELi1ELb0EE5__getB8ue170006Ev, symObjAddr: 0x368C, symBinAddr: 0x10000A41C, symSize: 0x14 }
  - { offsetInCU: 0x157C2, offset: 0x3C4E2, size: 0x8, addend: 0x0, symName: __ZNKSt3__117__compressed_pairImNS_9allocatorIPNS_16__hash_node_baseIPNS_11__hash_nodeINS_17__hash_value_typeIj5StockEEPvEEEEEEE5firstB8ue170006Ev, symObjAddr: 0x36A0, symBinAddr: 0x10000A430, symSize: 0x24 }
  - { offsetInCU: 0x157E7, offset: 0x3C507, size: 0x8, addend: 0x0, symName: __ZNKSt3__122__compressed_pair_elemImLi0ELb0EE5__getB8ue170006Ev, symObjAddr: 0x36C4, symBinAddr: 0x10000A454, symSize: 0x14 }
  - { offsetInCU: 0x1580C, offset: 0x3C52C, size: 0x8, addend: 0x0, symName: __ZNSt3__14pairIKNS_12basic_stringIcNS_11char_traitsIcEENS_9allocatorIcEEEEMN2UI4MenuEFvvEEC2B8ue170006IRA4_KcSB_LPv0EEEOT_OT0_, symObjAddr: 0x390C, symBinAddr: 0x10000A468, symSize: 0x4C }
  - { offsetInCU: 0x15869, offset: 0x3C589, size: 0x8, addend: 0x0, symName: __ZNSt3__14pairIKNS_12basic_stringIcNS_11char_traitsIcEENS_9allocatorIcEEEEMN2UI4MenuEFvvEEC2B8ue170006IRA5_KcSB_LPv0EEEOT_OT0_, symObjAddr: 0x3958, symBinAddr: 0x10000A4B4, symSize: 0x4C }
  - { offsetInCU: 0x158C6, offset: 0x3C5E6, size: 0x8, addend: 0x0, symName: __ZNSt3__14pairIKNS_12basic_stringIcNS_11char_traitsIcEENS_9allocatorIcEEEEMN2UI4MenuEFvvEEC2B8ue170006IRA7_KcSB_LPv0EEEOT_OT0_, symObjAddr: 0x39A4, symBinAddr: 0x10000A500, symSize: 0x4C }
  - { offsetInCU: 0x15923, offset: 0x3C643, size: 0x8, addend: 0x0, symName: __ZNSt3__14pairIKNS_12basic_stringIcNS_11char_traitsIcEENS_9allocatorIcEEEEMN2UI4MenuEFvvEEC2B8ue170006IRA9_KcSB_LPv0EEEOT_OT0_, symObjAddr: 0x39F0, symBinAddr: 0x10000A54C, symSize: 0x4C }
  - { offsetInCU: 0x15980, offset: 0x3C6A0, size: 0x8, addend: 0x0, symName: __ZNSt3__14pairIKNS_12basic_stringIcNS_11char_traitsIcEENS_9allocatorIcEEEEMN2UI4MenuEFvvEEC2B8ue170006ERKSC_, symObjAddr: 0x3A68, symBinAddr: 0x10000A598, symSize: 0x48 }
  - { offsetInCU: 0x159B3, offset: 0x3C6D3, size: 0x8, addend: 0x0, symName: __ZN2UI7ElementC2ENSt3__112basic_stringIcNS1_11char_traitsIcEENS1_9allocatorIcEEEE, symObjAddr: 0x3AB0, symBinAddr: 0x10000A5E0, symSize: 0x40 }
  - { offsetInCU: 0x159EA, offset: 0x3C70A, size: 0x8, addend: 0x0, symName: __ZN2UI7ElementD2Ev, symObjAddr: 0x3AF0, symBinAddr: 0x10000A620, symSize: 0x38 }
  - { offsetInCU: 0x15A15, offset: 0x3C735, size: 0x8, addend: 0x0, symName: __ZNSt3__113unordered_mapINS_12basic_stringIcNS_11char_traitsIcEENS_9allocatorIcEEEEMN2UI4MenuEFvvENS_4hashIS6_EENS_8equal_toIS6_EENS4_INS_4pairIKS6_SA_EEEEEC2B8ue170006Ev, symObjAddr: 0x3EE4, symBinAddr: 0x10000A658, symSize: 0x2C }
  - { offsetInCU: 0x15A3D, offset: 0x3C75D, size: 0x8, addend: 0x0, symName: __ZNSt3__112__hash_tableINS_17__hash_value_typeINS_12basic_stringIcNS_11char_traitsIcEENS_9allocatorIcEEEEMN2UI4MenuEFvvEEENS_22__unordered_map_hasherIS7_SC_NS_4hashIS7_EENS_8equal_toIS7_EELb1EEENS_21__unordered_map_equalIS7_SC_SH_SF_Lb1EEENS5_ISC_EEEC1Ev, symObjAddr: 0x3F10, symBinAddr: 0x10000A684, symSize: 0x2C }
  - { offsetInCU: 0x15A67, offset: 0x3C787, size: 0x8, addend: 0x0, symName: __ZNSt3__112__hash_tableINS_17__hash_value_typeINS_12basic_stringIcNS_11char_traitsIcEENS_9allocatorIcEEEEMN2UI4MenuEFvvEEENS_22__unordered_map_hasherIS7_SC_NS_4hashIS7_EENS_8equal_toIS7_EELb1EEENS_21__unordered_map_equalIS7_SC_SH_SF_Lb1EEENS5_ISC_EEEC2Ev, symObjAddr: 0x3F3C, symBinAddr: 0x10000A6B0, symSize: 0x7C }
  - { offsetInCU: 0x15A91, offset: 0x3C7B1, size: 0x8, addend: 0x0, symName: __ZNSt3__110unique_ptrIA_PNS_16__hash_node_baseIPNS_11__hash_nodeINS_17__hash_value_typeINS_12basic_stringIcNS_11char_traitsIcEENS_9allocatorIcEEEEMN2UI4MenuEFvvEEEPvEEEENS_25__bucket_list_deallocatorINS7_ISJ_EEEEEC1B8ue170006ILb1EvEEv, symObjAddr: 0x3FB8, symBinAddr: 0x10000A72C, symSize: 0x2C }
  - { offsetInCU: 0x15AC4, offset: 0x3C7E4, size: 0x8, addend: 0x0, symName: __ZNSt3__117__compressed_pairINS_16__hash_node_baseIPNS_11__hash_nodeINS_17__hash_value_typeINS_12basic_stringIcNS_11char_traitsIcEENS_9allocatorIcEEEEMN2UI4MenuEFvvEEEPvEEEENS7_ISG_EEEC1B8ue170006ILb1EvEEv, symObjAddr: 0x3FE4, symBinAddr: 0x10000A758, symSize: 0x2C }
  - { offsetInCU: 0x15AF7, offset: 0x3C817, size: 0x8, addend: 0x0, symName: __ZNSt3__117__compressed_pairImNS_22__unordered_map_hasherINS_12basic_stringIcNS_11char_traitsIcEENS_9allocatorIcEEEENS_17__hash_value_typeIS7_MN2UI4MenuEFvvEEENS_4hashIS7_EENS_8equal_toIS7_EELb1EEEEC1B8ue170006IiNS_18__default_init_tagEEEOT_OT0_, symObjAddr: 0x4010, symBinAddr: 0x10000A784, symSize: 0x3C }
  - { offsetInCU: 0x15B4D, offset: 0x3C86D, size: 0x8, addend: 0x0, symName: __ZNSt3__117__compressed_pairIfNS_21__unordered_map_equalINS_12basic_stringIcNS_11char_traitsIcEENS_9allocatorIcEEEENS_17__hash_value_typeIS7_MN2UI4MenuEFvvEEENS_8equal_toIS7_EENS_4hashIS7_EELb1EEEEC1B8ue170006IfNS_18__default_init_tagEEEOT_OT0_, symObjAddr: 0x404C, symBinAddr: 0x10000A7C0, symSize: 0x3C }
  - { offsetInCU: 0x15BA3, offset: 0x3C8C3, size: 0x8, addend: 0x0, symName: __ZNSt3__110unique_ptrIA_PNS_16__hash_node_baseIPNS_11__hash_nodeINS_17__hash_value_typeINS_12basic_stringIcNS_11char_traitsIcEENS_9allocatorIcEEEEMN2UI4MenuEFvvEEEPvEEEENS_25__bucket_list_deallocatorINS7_ISJ_EEEEEC2B8ue170006ILb1EvEEv, symObjAddr: 0x4088, symBinAddr: 0x10000A7FC, symSize: 0x3C }
  - { offsetInCU: 0x15BD6, offset: 0x3C8F6, size: 0x8, addend: 0x0, symName: __ZNSt3__117__compressed_pairIPPNS_16__hash_node_baseIPNS_11__hash_nodeINS_17__hash_value_typeINS_12basic_stringIcNS_11char_traitsIcEENS_9allocatorIcEEEEMN2UI4MenuEFvvEEEPvEEEENS_25__bucket_list_deallocatorINS7_ISJ_EEEEEC1B8ue170006INS_16__value_init_tagESQ_EEOT_OT0_, symObjAddr: 0x40C4, symBinAddr: 0x10000A838, symSize: 0x3C }
  - { offsetInCU: 0x15C2C, offset: 0x3C94C, size: 0x8, addend: 0x0, symName: __ZNSt3__117__compressed_pairIPPNS_16__hash_node_baseIPNS_11__hash_nodeINS_17__hash_value_typeINS_12basic_stringIcNS_11char_traitsIcEENS_9allocatorIcEEEEMN2UI4MenuEFvvEEEPvEEEENS_25__bucket_list_deallocatorINS7_ISJ_EEEEEC2B8ue170006INS_16__value_init_tagESQ_EEOT_OT0_, symObjAddr: 0x4100, symBinAddr: 0x10000A874, symSize: 0x40 }
  - { offsetInCU: 0x15C82, offset: 0x3C9A2, size: 0x8, addend: 0x0, symName: __ZNSt3__122__compressed_pair_elemIPPNS_16__hash_node_baseIPNS_11__hash_nodeINS_17__hash_value_typeINS_12basic_stringIcNS_11char_traitsIcEENS_9allocatorIcEEEEMN2UI4MenuEFvvEEEPvEEEELi0ELb0EEC2B8ue170006ENS_16__value_init_tagE, symObjAddr: 0x4140, symBinAddr: 0x10000A8B4, symSize: 0x18 }
  - { offsetInCU: 0x15CB6, offset: 0x3C9D6, size: 0x8, addend: 0x0, symName: __ZNSt3__122__compressed_pair_elemINS_25__bucket_list_deallocatorINS_9allocatorIPNS_16__hash_node_baseIPNS_11__hash_nodeINS_17__hash_value_typeINS_12basic_stringIcNS_11char_traitsIcEENS2_IcEEEEMN2UI4MenuEFvvEEEPvEEEEEEEELi1ELb0EEC2B8ue170006ENS_16__value_init_tagE, symObjAddr: 0x4158, symBinAddr: 0x10000A8CC, symSize: 0x2C }
  - { offsetInCU: 0x15CE9, offset: 0x3CA09, size: 0x8, addend: 0x0, symName: __ZNSt3__125__bucket_list_deallocatorINS_9allocatorIPNS_16__hash_node_baseIPNS_11__hash_nodeINS_17__hash_value_typeINS_12basic_stringIcNS_11char_traitsIcEENS1_IcEEEEMN2UI4MenuEFvvEEEPvEEEEEEEC1B8ue170006Ev, symObjAddr: 0x4184, symBinAddr: 0x10000A8F8, symSize: 0x2C }
  - { offsetInCU: 0x15D11, offset: 0x3CA31, size: 0x8, addend: 0x0, symName: __ZNSt3__125__bucket_list_deallocatorINS_9allocatorIPNS_16__hash_node_baseIPNS_11__hash_nodeINS_17__hash_value_typeINS_12basic_stringIcNS_11char_traitsIcEENS1_IcEEEEMN2UI4MenuEFvvEEEPvEEEEEEEC2B8ue170006Ev, symObjAddr: 0x41B0, symBinAddr: 0x10000A924, symSize: 0x40 }
  - { offsetInCU: 0x15D39, offset: 0x3CA59, size: 0x8, addend: 0x0, symName: __ZNSt3__117__compressed_pairImNS_9allocatorIPNS_16__hash_node_baseIPNS_11__hash_nodeINS_17__hash_value_typeINS_12basic_stringIcNS_11char_traitsIcEENS1_IcEEEEMN2UI4MenuEFvvEEEPvEEEEEEEC1B8ue170006IiNS_18__default_init_tagEEEOT_OT0_, symObjAddr: 0x41F0, symBinAddr: 0x10000A964, symSize: 0x3C }
  - { offsetInCU: 0x15D8F, offset: 0x3CAAF, size: 0x8, addend: 0x0, symName: __ZNSt3__117__compressed_pairImNS_9allocatorIPNS_16__hash_node_baseIPNS_11__hash_nodeINS_17__hash_value_typeINS_12basic_stringIcNS_11char_traitsIcEENS1_IcEEEEMN2UI4MenuEFvvEEEPvEEEEEEEC2B8ue170006IiNS_18__default_init_tagEEEOT_OT0_, symObjAddr: 0x422C, symBinAddr: 0x10000A9A0, symSize: 0x40 }
  - { offsetInCU: 0x15DE5, offset: 0x3CB05, size: 0x8, addend: 0x0, symName: __ZNSt3__122__compressed_pair_elemINS_9allocatorIPNS_16__hash_node_baseIPNS_11__hash_nodeINS_17__hash_value_typeINS_12basic_stringIcNS_11char_traitsIcEENS1_IcEEEEMN2UI4MenuEFvvEEEPvEEEEEELi1ELb1EEC2B8ue170006ENS_18__default_init_tagE, symObjAddr: 0x426C, symBinAddr: 0x10000A9E0, symSize: 0x2C }
  - { offsetInCU: 0x15E18, offset: 0x3CB38, size: 0x8, addend: 0x0, symName: __ZNSt3__19allocatorIPNS_16__hash_node_baseIPNS_11__hash_nodeINS_17__hash_value_typeINS_12basic_stringIcNS_11char_traitsIcEENS0_IcEEEEMN2UI4MenuEFvvEEEPvEEEEEC2B8ue170006Ev, symObjAddr: 0x4298, symBinAddr: 0x10000AA0C, symSize: 0x2C }
  - { offsetInCU: 0x15E40, offset: 0x3CB60, size: 0x8, addend: 0x0, symName: __ZNSt3__116__non_trivial_ifILb1ENS_9allocatorIPNS_16__hash_node_baseIPNS_11__hash_nodeINS_17__hash_value_typeINS_12basic_stringIcNS_11char_traitsIcEENS1_IcEEEEMN2UI4MenuEFvvEEEPvEEEEEEEC2B8ue170006Ev, symObjAddr: 0x42C4, symBinAddr: 0x10000AA38, symSize: 0x14 }
  - { offsetInCU: 0x15E69, offset: 0x3CB89, size: 0x8, addend: 0x0, symName: __ZNSt3__117__compressed_pairINS_16__hash_node_baseIPNS_11__hash_nodeINS_17__hash_value_typeINS_12basic_stringIcNS_11char_traitsIcEENS_9allocatorIcEEEEMN2UI4MenuEFvvEEEPvEEEENS7_ISG_EEEC2B8ue170006ILb1EvEEv, symObjAddr: 0x42D8, symBinAddr: 0x10000AA4C, symSize: 0x34 }
  - { offsetInCU: 0x15E9C, offset: 0x3CBBC, size: 0x8, addend: 0x0, symName: __ZNSt3__122__compressed_pair_elemINS_16__hash_node_baseIPNS_11__hash_nodeINS_17__hash_value_typeINS_12basic_stringIcNS_11char_traitsIcEENS_9allocatorIcEEEEMN2UI4MenuEFvvEEEPvEEEELi0ELb0EEC2B8ue170006ENS_16__value_init_tagE, symObjAddr: 0x430C, symBinAddr: 0x10000AA80, symSize: 0x2C }
  - { offsetInCU: 0x15ECF, offset: 0x3CBEF, size: 0x8, addend: 0x0, symName: __ZNSt3__122__compressed_pair_elemINS_9allocatorINS_11__hash_nodeINS_17__hash_value_typeINS_12basic_stringIcNS_11char_traitsIcEENS1_IcEEEEMN2UI4MenuEFvvEEEPvEEEELi1ELb1EEC2B8ue170006ENS_16__value_init_tagE, symObjAddr: 0x4338, symBinAddr: 0x10000AAAC, symSize: 0x2C }
  - { offsetInCU: 0x15F02, offset: 0x3CC22, size: 0x8, addend: 0x0, symName: __ZNSt3__116__hash_node_baseIPNS_11__hash_nodeINS_17__hash_value_typeINS_12basic_stringIcNS_11char_traitsIcEENS_9allocatorIcEEEEMN2UI4MenuEFvvEEEPvEEEC1B8ue170006Ev, symObjAddr: 0x4364, symBinAddr: 0x10000AAD8, symSize: 0x2C }
  - { offsetInCU: 0x15F2A, offset: 0x3CC4A, size: 0x8, addend: 0x0, symName: __ZNSt3__116__hash_node_baseIPNS_11__hash_nodeINS_17__hash_value_typeINS_12basic_stringIcNS_11char_traitsIcEENS_9allocatorIcEEEEMN2UI4MenuEFvvEEEPvEEEC2B8ue170006Ev, symObjAddr: 0x4390, symBinAddr: 0x10000AB04, symSize: 0x18 }
  - { offsetInCU: 0x15F53, offset: 0x3CC73, size: 0x8, addend: 0x0, symName: __ZNSt3__19allocatorINS_11__hash_nodeINS_17__hash_value_typeINS_12basic_stringIcNS_11char_traitsIcEENS0_IcEEEEMN2UI4MenuEFvvEEEPvEEEC2B8ue170006Ev, symObjAddr: 0x43A8, symBinAddr: 0x10000AB1C, symSize: 0x2C }
  - { offsetInCU: 0x15F7B, offset: 0x3CC9B, size: 0x8, addend: 0x0, symName: __ZNSt3__116__non_trivial_ifILb1ENS_9allocatorINS_11__hash_nodeINS_17__hash_value_typeINS_12basic_stringIcNS_11char_traitsIcEENS1_IcEEEEMN2UI4MenuEFvvEEEPvEEEEEC2B8ue170006Ev, symObjAddr: 0x43D4, symBinAddr: 0x10000AB48, symSize: 0x14 }
  - { offsetInCU: 0x15FA4, offset: 0x3CCC4, size: 0x8, addend: 0x0, symName: __ZNSt3__117__compressed_pairImNS_22__unordered_map_hasherINS_12basic_stringIcNS_11char_traitsIcEENS_9allocatorIcEEEENS_17__hash_value_typeIS7_MN2UI4MenuEFvvEEENS_4hashIS7_EENS_8equal_toIS7_EELb1EEEEC2B8ue170006IiNS_18__default_init_tagEEEOT_OT0_, symObjAddr: 0x43E8, symBinAddr: 0x10000AB5C, symSize: 0x40 }
  - { offsetInCU: 0x15FFA, offset: 0x3CD1A, size: 0x8, addend: 0x0, symName: __ZNSt3__122__compressed_pair_elemINS_22__unordered_map_hasherINS_12basic_stringIcNS_11char_traitsIcEENS_9allocatorIcEEEENS_17__hash_value_typeIS7_MN2UI4MenuEFvvEEENS_4hashIS7_EENS_8equal_toIS7_EELb1EEELi1ELb1EEC2B8ue170006ENS_18__default_init_tagE, symObjAddr: 0x4428, symBinAddr: 0x10000AB9C, symSize: 0x2C }
  - { offsetInCU: 0x1602D, offset: 0x3CD4D, size: 0x8, addend: 0x0, symName: __ZNSt3__122__unordered_map_hasherINS_12basic_stringIcNS_11char_traitsIcEENS_9allocatorIcEEEENS_17__hash_value_typeIS6_MN2UI4MenuEFvvEEENS_4hashIS6_EENS_8equal_toIS6_EELb1EEC2B8ue170006Ev, symObjAddr: 0x4454, symBinAddr: 0x10000ABC8, symSize: 0x14 }
  - { offsetInCU: 0x16056, offset: 0x3CD76, size: 0x8, addend: 0x0, symName: __ZNSt3__117__compressed_pairIfNS_21__unordered_map_equalINS_12basic_stringIcNS_11char_traitsIcEENS_9allocatorIcEEEENS_17__hash_value_typeIS7_MN2UI4MenuEFvvEEENS_8equal_toIS7_EENS_4hashIS7_EELb1EEEEC2B8ue170006IfNS_18__default_init_tagEEEOT_OT0_, symObjAddr: 0x4468, symBinAddr: 0x10000ABDC, symSize: 0x40 }
  - { offsetInCU: 0x160AC, offset: 0x3CDCC, size: 0x8, addend: 0x0, symName: __ZNSt3__122__compressed_pair_elemINS_21__unordered_map_equalINS_12basic_stringIcNS_11char_traitsIcEENS_9allocatorIcEEEENS_17__hash_value_typeIS7_MN2UI4MenuEFvvEEENS_8equal_toIS7_EENS_4hashIS7_EELb1EEELi1ELb1EEC2B8ue170006ENS_18__default_init_tagE, symObjAddr: 0x44A8, symBinAddr: 0x10000AC1C, symSize: 0x2C }
  - { offsetInCU: 0x160DF, offset: 0x3CDFF, size: 0x8, addend: 0x0, symName: __ZNSt3__121__unordered_map_equalINS_12basic_stringIcNS_11char_traitsIcEENS_9allocatorIcEEEENS_17__hash_value_typeIS6_MN2UI4MenuEFvvEEENS_8equal_toIS6_EENS_4hashIS6_EELb1EEC2B8ue170006Ev, symObjAddr: 0x44D4, symBinAddr: 0x10000AC48, symSize: 0x14 }
  - { offsetInCU: 0x16108, offset: 0x3CE28, size: 0x8, addend: 0x0, symName: __ZNSt3__112__hash_tableINS_17__hash_value_typeINS_12basic_stringIcNS_11char_traitsIcEENS_9allocatorIcEEEEMN2UI4MenuEFvvEEENS_22__unordered_map_hasherIS7_SC_NS_4hashIS7_EENS_8equal_toIS7_EELb1EEENS_21__unordered_map_equalIS7_SC_SH_SF_Lb1EEENS5_ISC_EEE15__assign_uniqueIPKNS_4pairIKS7_SB_EEEEvT_ST_, symObjAddr: 0x4ACC, symBinAddr: 0x10000AC5C, symSize: 0x1B4 }
  - { offsetInCU: 0x1617F, offset: 0x3CE9F, size: 0x8, addend: 0x0, symName: __ZNKSt16initializer_listINSt3__14pairIKNS0_12basic_stringIcNS0_11char_traitsIcEENS0_9allocatorIcEEEEMN2UI4MenuEFvvEEEE5beginB8ue170006Ev, symObjAddr: 0x4C80, symBinAddr: 0x10000AE10, symSize: 0x18 }
  - { offsetInCU: 0x161A4, offset: 0x3CEC4, size: 0x8, addend: 0x0, symName: __ZNKSt16initializer_listINSt3__14pairIKNS0_12basic_stringIcNS0_11char_traitsIcEENS0_9allocatorIcEEEEMN2UI4MenuEFvvEEEE3endB8ue170006Ev, symObjAddr: 0x4C98, symBinAddr: 0x10000AE28, symSize: 0x28 }
  - { offsetInCU: 0x161C9, offset: 0x3CEE9, size: 0x8, addend: 0x0, symName: __ZNKSt3__112__hash_tableINS_17__hash_value_typeINS_12basic_stringIcNS_11char_traitsIcEENS_9allocatorIcEEEEMN2UI4MenuEFvvEEENS_22__unordered_map_hasherIS7_SC_NS_4hashIS7_EENS_8equal_toIS7_EELb1EEENS_21__unordered_map_equalIS7_SC_SH_SF_Lb1EEENS5_ISC_EEE12bucket_countB8ue170006Ev, symObjAddr: 0x4CC0, symBinAddr: 0x10000AE50, symSize: 0x28 }
  - { offsetInCU: 0x161EE, offset: 0x3CF0E, size: 0x8, addend: 0x0, symName: __ZNSt3__112__hash_tableINS_17__hash_value_typeINS_12basic_stringIcNS_11char_traitsIcEENS_9allocatorIcEEEEMN2UI4MenuEFvvEEENS_22__unordered_map_hasherIS7_SC_NS_4hashIS7_EENS_8equal_toIS7_EELb1EEENS_21__unordered_map_equalIS7_SC_SH_SF_Lb1EEENS5_ISC_EEE8__detachEv, symObjAddr: 0x4CE8, symBinAddr: 0x10000AE78, symSize: 0xB4 }
  - { offsetInCU: 0x16247, offset: 0x3CF67, size: 0x8, addend: 0x0, symName: __ZNSt3__117__hash_value_typeINS_12basic_stringIcNS_11char_traitsIcEENS_9allocatorIcEEEEMN2UI4MenuEFvvEEaSB8ue170006IRKNS_4pairIKS6_SA_EEvEERSB_OT_, symObjAddr: 0x4D9C, symBinAddr: 0x10000AF2C, symSize: 0x54 }
  - { offsetInCU: 0x16285, offset: 0x3CFA5, size: 0x8, addend: 0x0, symName: __ZNSt3__112__hash_tableINS_17__hash_value_typeINS_12basic_stringIcNS_11char_traitsIcEENS_9allocatorIcEEEEMN2UI4MenuEFvvEEENS_22__unordered_map_hasherIS7_SC_NS_4hashIS7_EENS_8equal_toIS7_EELb1EEENS_21__unordered_map_equalIS7_SC_SH_SF_Lb1EEENS5_ISC_EEE20__node_insert_uniqueEPNS_11__hash_nodeISC_PvEE, symObjAddr: 0x4DF0, symBinAddr: 0x10000AF80, symSize: 0xC4 }
  - { offsetInCU: 0x162D8, offset: 0x3CFF8, size: 0x8, addend: 0x0, symName: __ZNSt3__112__hash_tableINS_17__hash_value_typeINS_12basic_stringIcNS_11char_traitsIcEENS_9allocatorIcEEEEMN2UI4MenuEFvvEEENS_22__unordered_map_hasherIS7_SC_NS_4hashIS7_EENS_8equal_toIS7_EELb1EEENS_21__unordered_map_equalIS7_SC_SH_SF_Lb1EEENS5_ISC_EEE15__insert_uniqueB8ue170006ERKNS_4pairIKS7_SB_EE, symObjAddr: 0x4EB4, symBinAddr: 0x10000B044, symSize: 0x50 }
  - { offsetInCU: 0x1630C, offset: 0x3D02C, size: 0x8, addend: 0x0, symName: __ZNKSt3__110unique_ptrIA_PNS_16__hash_node_baseIPNS_11__hash_nodeINS_17__hash_value_typeINS_12basic_stringIcNS_11char_traitsIcEENS_9allocatorIcEEEEMN2UI4MenuEFvvEEEPvEEEENS_25__bucket_list_deallocatorINS7_ISJ_EEEEE11get_deleterB8ue170006Ev, symObjAddr: 0x4F04, symBinAddr: 0x10000B094, symSize: 0x24 }
  - { offsetInCU: 0x16331, offset: 0x3D051, size: 0x8, addend: 0x0, symName: __ZNKSt3__125__bucket_list_deallocatorINS_9allocatorIPNS_16__hash_node_baseIPNS_11__hash_nodeINS_17__hash_value_typeINS_12basic_stringIcNS_11char_traitsIcEENS1_IcEEEEMN2UI4MenuEFvvEEEPvEEEEEEE4sizeB8ue170006Ev, symObjAddr: 0x4F28, symBinAddr: 0x10000B0B8, symSize: 0x28 }
  - { offsetInCU: 0x16356, offset: 0x3D076, size: 0x8, addend: 0x0, symName: __ZNKSt3__117__compressed_pairIPPNS_16__hash_node_baseIPNS_11__hash_nodeINS_17__hash_value_typeINS_12basic_stringIcNS_11char_traitsIcEENS_9allocatorIcEEEEMN2UI4MenuEFvvEEEPvEEEENS_25__bucket_list_deallocatorINS7_ISJ_EEEEE6secondB8ue170006Ev, symObjAddr: 0x4F50, symBinAddr: 0x10000B0E0, symSize: 0x28 }
  - { offsetInCU: 0x1637B, offset: 0x3D09B, size: 0x8, addend: 0x0, symName: __ZNKSt3__122__compressed_pair_elemINS_25__bucket_list_deallocatorINS_9allocatorIPNS_16__hash_node_baseIPNS_11__hash_nodeINS_17__hash_value_typeINS_12basic_stringIcNS_11char_traitsIcEENS2_IcEEEEMN2UI4MenuEFvvEEEPvEEEEEEEELi1ELb0EE5__getB8ue170006Ev, symObjAddr: 0x4F78, symBinAddr: 0x10000B108, symSize: 0x14 }
  - { offsetInCU: 0x163A0, offset: 0x3D0C0, size: 0x8, addend: 0x0, symName: __ZNKSt3__117__compressed_pairImNS_9allocatorIPNS_16__hash_node_baseIPNS_11__hash_nodeINS_17__hash_value_typeINS_12basic_stringIcNS_11char_traitsIcEENS1_IcEEEEMN2UI4MenuEFvvEEEPvEEEEEEE5firstB8ue170006Ev, symObjAddr: 0x4F8C, symBinAddr: 0x10000B11C, symSize: 0x24 }
  - { offsetInCU: 0x163C5, offset: 0x3D0E5, size: 0x8, addend: 0x0, symName: __ZNKSt3__110unique_ptrIA_PNS_16__hash_node_baseIPNS_11__hash_nodeINS_17__hash_value_typeINS_12basic_stringIcNS_11char_traitsIcEENS_9allocatorIcEEEEMN2UI4MenuEFvvEEEPvEEEENS_25__bucket_list_deallocatorINS7_ISJ_EEEEEixB8ue170006Em, symObjAddr: 0x4FB0, symBinAddr: 0x10000B140, symSize: 0x34 }
  - { offsetInCU: 0x163F9, offset: 0x3D119, size: 0x8, addend: 0x0, symName: __ZNSt3__112__hash_tableINS_17__hash_value_typeINS_12basic_stringIcNS_11char_traitsIcEENS_9allocatorIcEEEEMN2UI4MenuEFvvEEENS_22__unordered_map_hasherIS7_SC_NS_4hashIS7_EENS_8equal_toIS7_EELb1EEENS_21__unordered_map_equalIS7_SC_SH_SF_Lb1EEENS5_ISC_EEE4sizeB8ue170006Ev, symObjAddr: 0x4FE4, symBinAddr: 0x10000B174, symSize: 0x28 }
  - { offsetInCU: 0x1641E, offset: 0x3D13E, size: 0x8, addend: 0x0, symName: __ZNKSt3__117__compressed_pairIPPNS_16__hash_node_baseIPNS_11__hash_nodeINS_17__hash_value_typeINS_12basic_stringIcNS_11char_traitsIcEENS_9allocatorIcEEEEMN2UI4MenuEFvvEEEPvEEEENS_25__bucket_list_deallocatorINS7_ISJ_EEEEE5firstB8ue170006Ev, symObjAddr: 0x500C, symBinAddr: 0x10000B19C, symSize: 0x24 }
  - { offsetInCU: 0x16443, offset: 0x3D163, size: 0x8, addend: 0x0, symName: __ZNKSt3__122__compressed_pair_elemIPPNS_16__hash_node_baseIPNS_11__hash_nodeINS_17__hash_value_typeINS_12basic_stringIcNS_11char_traitsIcEENS_9allocatorIcEEEEMN2UI4MenuEFvvEEEPvEEEELi0ELb0EE5__getB8ue170006Ev, symObjAddr: 0x5030, symBinAddr: 0x10000B1C0, symSize: 0x14 }
  - { offsetInCU: 0x16468, offset: 0x3D188, size: 0x8, addend: 0x0, symName: __ZNSt3__117__compressed_pairImNS_22__unordered_map_hasherINS_12basic_stringIcNS_11char_traitsIcEENS_9allocatorIcEEEENS_17__hash_value_typeIS7_MN2UI4MenuEFvvEEENS_4hashIS7_EENS_8equal_toIS7_EELb1EEEE5firstB8ue170006Ev, symObjAddr: 0x5044, symBinAddr: 0x10000B1D4, symSize: 0x24 }
  - { offsetInCU: 0x1648D, offset: 0x3D1AD, size: 0x8, addend: 0x0, symName: __ZNSt3__117__hash_value_typeINS_12basic_stringIcNS_11char_traitsIcEENS_9allocatorIcEEEEMN2UI4MenuEFvvEE5__refB8ue170006Ev, symObjAddr: 0x5068, symBinAddr: 0x10000B1F8, symSize: 0x44 }
  - { offsetInCU: 0x164C1, offset: 0x3D1E1, size: 0x8, addend: 0x0, symName: __ZNSt3__14pairIRNS_12basic_stringIcNS_11char_traitsIcEENS_9allocatorIcEEEERMN2UI4MenuEFvvEEaSB8ue170006IKS6_SB_LPv0EEERSD_RKNS0_IT_T0_EE, symObjAddr: 0x50AC, symBinAddr: 0x10000B23C, symSize: 0x50 }
  - { offsetInCU: 0x1650E, offset: 0x3D22E, size: 0x8, addend: 0x0, symName: __ZNSt3__14pairIRNS_12basic_stringIcNS_11char_traitsIcEENS_9allocatorIcEEEERMN2UI4MenuEFvvEEC1B8ue170006ILb1ELPv0EEES7_SC_, symObjAddr: 0x50FC, symBinAddr: 0x10000B28C, symSize: 0x3C }
  - { offsetInCU: 0x16563, offset: 0x3D283, size: 0x8, addend: 0x0, symName: __ZNSt3__14pairIRNS_12basic_stringIcNS_11char_traitsIcEENS_9allocatorIcEEEERMN2UI4MenuEFvvEEC2B8ue170006ILb1ELPv0EEES7_SC_, symObjAddr: 0x5138, symBinAddr: 0x10000B2C8, symSize: 0x2C }
  - { offsetInCU: 0x165B9, offset: 0x3D2D9, size: 0x8, addend: 0x0, symName: __ZNSt3__112__hash_tableINS_17__hash_value_typeINS_12basic_stringIcNS_11char_traitsIcEENS_9allocatorIcEEEEMN2UI4MenuEFvvEEENS_22__unordered_map_hasherIS7_SC_NS_4hashIS7_EENS_8equal_toIS7_EELb1EEENS_21__unordered_map_equalIS7_SC_SH_SF_Lb1EEENS5_ISC_EEE13hash_functionB8ue170006Ev, symObjAddr: 0x5164, symBinAddr: 0x10000B2F4, symSize: 0x28 }
  - { offsetInCU: 0x165DE, offset: 0x3D2FE, size: 0x8, addend: 0x0, symName: __ZNKSt3__122__unordered_map_hasherINS_12basic_stringIcNS_11char_traitsIcEENS_9allocatorIcEEEENS_17__hash_value_typeIS6_MN2UI4MenuEFvvEEENS_4hashIS6_EENS_8equal_toIS6_EELb1EEclB8ue170006ERKSC_, symObjAddr: 0x518C, symBinAddr: 0x10000B31C, symSize: 0x3C }
  - { offsetInCU: 0x16612, offset: 0x3D332, size: 0x8, addend: 0x0, symName: __ZNSt3__112__hash_tableINS_17__hash_value_typeINS_12basic_stringIcNS_11char_traitsIcEENS_9allocatorIcEEEEMN2UI4MenuEFvvEEENS_22__unordered_map_hasherIS7_SC_NS_4hashIS7_EENS_8equal_toIS7_EELb1EEENS_21__unordered_map_equalIS7_SC_SH_SF_Lb1EEENS5_ISC_EEE28__node_insert_unique_prepareB8ue170006EmRSC_, symObjAddr: 0x51C8, symBinAddr: 0x10000B358, symSize: 0x290 }
  - { offsetInCU: 0x16692, offset: 0x3D3B2, size: 0x8, addend: 0x0, symName: __ZNKSt3__116__hash_node_baseIPNS_11__hash_nodeINS_17__hash_value_typeINS_12basic_stringIcNS_11char_traitsIcEENS_9allocatorIcEEEEMN2UI4MenuEFvvEEEPvEEE6__hashB8ue170006Ev, symObjAddr: 0x5458, symBinAddr: 0x10000B5E8, symSize: 0x18 }
  - { offsetInCU: 0x166B7, offset: 0x3D3D7, size: 0x8, addend: 0x0, symName: __ZNSt3__112__hash_tableINS_17__hash_value_typeINS_12basic_stringIcNS_11char_traitsIcEENS_9allocatorIcEEEEMN2UI4MenuEFvvEEENS_22__unordered_map_hasherIS7_SC_NS_4hashIS7_EENS_8equal_toIS7_EELb1EEENS_21__unordered_map_equalIS7_SC_SH_SF_Lb1EEENS5_ISC_EEE28__node_insert_unique_performB8ue170006EPNS_11__hash_nodeISC_PvEE, symObjAddr: 0x5470, symBinAddr: 0x10000B600, symSize: 0x154 }
  - { offsetInCU: 0x16719, offset: 0x3D439, size: 0x8, addend: 0x0, symName: __ZNSt3__116__hash_node_baseIPNS_11__hash_nodeINS_17__hash_value_typeINS_12basic_stringIcNS_11char_traitsIcEENS_9allocatorIcEEEEMN2UI4MenuEFvvEEEPvEEE5__ptrB8ue170006Ev, symObjAddr: 0x55C4, symBinAddr: 0x10000B754, symSize: 0x24 }
  - { offsetInCU: 0x1673E, offset: 0x3D45E, size: 0x8, addend: 0x0, symName: __ZNSt3__115__hash_iteratorIPNS_11__hash_nodeINS_17__hash_value_typeINS_12basic_stringIcNS_11char_traitsIcEENS_9allocatorIcEEEEMN2UI4MenuEFvvEEEPvEEEC1B8ue170006EPNS_16__hash_node_baseISG_EE, symObjAddr: 0x55E8, symBinAddr: 0x10000B778, symSize: 0x34 }
  - { offsetInCU: 0x1677A, offset: 0x3D49A, size: 0x8, addend: 0x0, symName: __ZNSt3__14pairINS_15__hash_iteratorIPNS_11__hash_nodeINS_17__hash_value_typeINS_12basic_stringIcNS_11char_traitsIcEENS_9allocatorIcEEEEMN2UI4MenuEFvvEEEPvEEEEbEC1B8ue170006ISI_RbLSF_0EEEOT_OT0_, symObjAddr: 0x561C, symBinAddr: 0x10000B7AC, symSize: 0x3C }
  - { offsetInCU: 0x167D7, offset: 0x3D4F7, size: 0x8, addend: 0x0, symName: __ZNSt3__117__compressed_pairImNS_22__unordered_map_hasherINS_12basic_stringIcNS_11char_traitsIcEENS_9allocatorIcEEEENS_17__hash_value_typeIS7_MN2UI4MenuEFvvEEENS_4hashIS7_EENS_8equal_toIS7_EELb1EEEE6secondB8ue170006Ev, symObjAddr: 0x5658, symBinAddr: 0x10000B7E8, symSize: 0x24 }
  - { offsetInCU: 0x167FC, offset: 0x3D51C, size: 0x8, addend: 0x0, symName: __ZNSt3__122__compressed_pair_elemINS_22__unordered_map_hasherINS_12basic_stringIcNS_11char_traitsIcEENS_9allocatorIcEEEENS_17__hash_value_typeIS7_MN2UI4MenuEFvvEEENS_4hashIS7_EENS_8equal_toIS7_EELb1EEELi1ELb1EE5__getB8ue170006Ev, symObjAddr: 0x567C, symBinAddr: 0x10000B80C, symSize: 0x14 }
  - { offsetInCU: 0x16821, offset: 0x3D541, size: 0x8, addend: 0x0, symName: __ZNKSt3__113__string_hashIcNS_9allocatorIcEEEclB8ue170006ERKNS_12basic_stringIcNS_11char_traitsIcEES2_EE, symObjAddr: 0x5690, symBinAddr: 0x10000B820, symSize: 0x64 }
  - { offsetInCU: 0x16855, offset: 0x3D575, size: 0x8, addend: 0x0, symName: __ZNKSt3__117__hash_value_typeINS_12basic_stringIcNS_11char_traitsIcEENS_9allocatorIcEEEEMN2UI4MenuEFvvEE11__get_valueB8ue170006Ev, symObjAddr: 0x56F4, symBinAddr: 0x10000B884, symSize: 0x24 }
  - { offsetInCU: 0x1687A, offset: 0x3D59A, size: 0x8, addend: 0x0, symName: __ZNKSt3__121__murmur2_or_cityhashImLm64EEclB8ue170006EPKvm, symObjAddr: 0x57A8, symBinAddr: 0x10000B8E4, symSize: 0x410 }
  - { offsetInCU: 0x16913, offset: 0x3D633, size: 0x8, addend: 0x0, symName: __ZNSt3__121__murmur2_or_cityhashImLm64EE18__hash_len_0_to_16B8ue170006EPKcm, symObjAddr: 0x5BB8, symBinAddr: 0x10000BCF4, symSize: 0x1C0 }
  - { offsetInCU: 0x169EF, offset: 0x3D70F, size: 0x8, addend: 0x0, symName: __ZNSt3__121__murmur2_or_cityhashImLm64EE19__hash_len_17_to_32B8ue170006EPKcm, symObjAddr: 0x5D78, symBinAddr: 0x10000BEB4, symSize: 0x130 }
  - { offsetInCU: 0x16A58, offset: 0x3D778, size: 0x8, addend: 0x0, symName: __ZNSt3__121__murmur2_or_cityhashImLm64EE19__hash_len_33_to_64B8ue170006EPKcm, symObjAddr: 0x5EA8, symBinAddr: 0x10000BFE4, symSize: 0x2B8 }
  - { offsetInCU: 0x16B0D, offset: 0x3D82D, size: 0x8, addend: 0x0, symName: __ZNSt3__121__murmur2_or_cityhashImLm64EE13__hash_len_16B8ue170006Emm, symObjAddr: 0x6180, symBinAddr: 0x10000C2BC, symSize: 0x80 }
  - { offsetInCU: 0x16B68, offset: 0x3D888, size: 0x8, addend: 0x0, symName: __ZNSt3__121__murmur2_or_cityhashImLm64EE29__weak_hash_len_32_with_seedsB8ue170006EPKcmm, symObjAddr: 0x6200, symBinAddr: 0x10000C33C, symSize: 0x88 }
  - { offsetInCU: 0x16BA7, offset: 0x3D8C7, size: 0x8, addend: 0x0, symName: __ZNSt3__121__murmur2_or_cityhashImLm64EE8__rotateB8ue170006Emi, symObjAddr: 0x6288, symBinAddr: 0x10000C3C4, symSize: 0x64 }
  - { offsetInCU: 0x16BD8, offset: 0x3D8F8, size: 0x8, addend: 0x0, symName: __ZNSt3__14pairImmEaSB8ue170006EOS1_, symObjAddr: 0x62EC, symBinAddr: 0x10000C428, symSize: 0x30 }
  - { offsetInCU: 0x16C0C, offset: 0x3D92C, size: 0x8, addend: 0x0, symName: __ZNSt3__121__murmur2_or_cityhashImLm64EE11__shift_mixB8ue170006Em, symObjAddr: 0x6358, symBinAddr: 0x10000C494, symSize: 0x1C }
  - { offsetInCU: 0x16C2F, offset: 0x3D94F, size: 0x8, addend: 0x0, symName: __ZNSt3__121__murmur2_or_cityhashImLm64EE22__rotate_by_at_least_1B8ue170006Emi, symObjAddr: 0x6374, symBinAddr: 0x10000C4B0, symSize: 0x38 }
  - { offsetInCU: 0x16C60, offset: 0x3D980, size: 0x8, addend: 0x0, symName: __ZNSt3__121__murmur2_or_cityhashImLm64EE29__weak_hash_len_32_with_seedsB8ue170006Emmmmmm, symObjAddr: 0x63CC, symBinAddr: 0x10000C508, symSize: 0xD8 }
  - { offsetInCU: 0x16CDC, offset: 0x3D9FC, size: 0x8, addend: 0x0, symName: __ZNSt3__14pairImmEC1B8ue170006ImmLPv0EEEOT_OT0_, symObjAddr: 0x64A4, symBinAddr: 0x10000C5E0, symSize: 0x3C }
  - { offsetInCU: 0x16D39, offset: 0x3DA59, size: 0x8, addend: 0x0, symName: __ZNSt3__14pairImmEC2B8ue170006ImmLPv0EEEOT_OT0_, symObjAddr: 0x64E0, symBinAddr: 0x10000C61C, symSize: 0x34 }
  - { offsetInCU: 0x16D97, offset: 0x3DAB7, size: 0x8, addend: 0x0, symName: __ZNSt3__112__hash_tableINS_17__hash_value_typeINS_12basic_stringIcNS_11char_traitsIcEENS_9allocatorIcEEEEMN2UI4MenuEFvvEEENS_22__unordered_map_hasherIS7_SC_NS_4hashIS7_EENS_8equal_toIS7_EELb1EEENS_21__unordered_map_equalIS7_SC_SH_SF_Lb1EEENS5_ISC_EEE6key_eqB8ue170006Ev, symObjAddr: 0x65A8, symBinAddr: 0x10000C688, symSize: 0x28 }
  - { offsetInCU: 0x16DBC, offset: 0x3DADC, size: 0x8, addend: 0x0, symName: __ZNKSt3__121__unordered_map_equalINS_12basic_stringIcNS_11char_traitsIcEENS_9allocatorIcEEEENS_17__hash_value_typeIS6_MN2UI4MenuEFvvEEENS_8equal_toIS6_EENS_4hashIS6_EELb1EEclB8ue170006ERKSC_SJ_, symObjAddr: 0x65D0, symBinAddr: 0x10000C6B0, symSize: 0x54 }
  - { offsetInCU: 0x16DFF, offset: 0x3DB1F, size: 0x8, addend: 0x0, symName: __ZNSt3__112__hash_tableINS_17__hash_value_typeINS_12basic_stringIcNS_11char_traitsIcEENS_9allocatorIcEEEEMN2UI4MenuEFvvEEENS_22__unordered_map_hasherIS7_SC_NS_4hashIS7_EENS_8equal_toIS7_EELb1EEENS_21__unordered_map_equalIS7_SC_SH_SF_Lb1EEENS5_ISC_EEE15max_load_factorB8ue170006Ev, symObjAddr: 0x6624, symBinAddr: 0x10000C704, symSize: 0x28 }
  - { offsetInCU: 0x16E24, offset: 0x3DB44, size: 0x8, addend: 0x0, symName: __ZNSt3__112__hash_tableINS_17__hash_value_typeINS_12basic_stringIcNS_11char_traitsIcEENS_9allocatorIcEEEEMN2UI4MenuEFvvEEENS_22__unordered_map_hasherIS7_SC_NS_4hashIS7_EENS_8equal_toIS7_EELb1EEENS_21__unordered_map_equalIS7_SC_SH_SF_Lb1EEENS5_ISC_EEE15__rehash_uniqueB8ue170006Em, symObjAddr: 0x664C, symBinAddr: 0x10000C72C, symSize: 0x2C }
  - { offsetInCU: 0x16E57, offset: 0x3DB77, size: 0x8, addend: 0x0, symName: __Z4ceilB8ue170006f, symObjAddr: 0x66F4, symBinAddr: 0x10000C7D4, symSize: 0x18 }
  - { offsetInCU: 0x16E87, offset: 0x3DBA7, size: 0x8, addend: 0x0, symName: __ZNSt3__117__compressed_pairIfNS_21__unordered_map_equalINS_12basic_stringIcNS_11char_traitsIcEENS_9allocatorIcEEEENS_17__hash_value_typeIS7_MN2UI4MenuEFvvEEENS_8equal_toIS7_EENS_4hashIS7_EELb1EEEE6secondB8ue170006Ev, symObjAddr: 0x670C, symBinAddr: 0x10000C7EC, symSize: 0x24 }
  - { offsetInCU: 0x16EAC, offset: 0x3DBCC, size: 0x8, addend: 0x0, symName: __ZNSt3__122__compressed_pair_elemINS_21__unordered_map_equalINS_12basic_stringIcNS_11char_traitsIcEENS_9allocatorIcEEEENS_17__hash_value_typeIS7_MN2UI4MenuEFvvEEENS_8equal_toIS7_EENS_4hashIS7_EELb1EEELi1ELb1EE5__getB8ue170006Ev, symObjAddr: 0x6730, symBinAddr: 0x10000C810, symSize: 0x14 }
  - { offsetInCU: 0x16ED1, offset: 0x3DBF1, size: 0x8, addend: 0x0, symName: __ZNKSt3__18equal_toINS_12basic_stringIcNS_11char_traitsIcEENS_9allocatorIcEEEEEclB8ue170006ERKS6_S9_, symObjAddr: 0x6744, symBinAddr: 0x10000C824, symSize: 0x34 }
  - { offsetInCU: 0x16F14, offset: 0x3DC34, size: 0x8, addend: 0x0, symName: __ZNSt3__111char_traitsIcE7compareB8ue170006EPKcS3_m, symObjAddr: 0x68C0, symBinAddr: 0x10000C9A0, symSize: 0x34 }
  - { offsetInCU: 0x16F53, offset: 0x3DC73, size: 0x8, addend: 0x0, symName: __ZNSt3__117__compressed_pairIfNS_21__unordered_map_equalINS_12basic_stringIcNS_11char_traitsIcEENS_9allocatorIcEEEENS_17__hash_value_typeIS7_MN2UI4MenuEFvvEEENS_8equal_toIS7_EENS_4hashIS7_EELb1EEEE5firstB8ue170006Ev, symObjAddr: 0x68F4, symBinAddr: 0x10000C9D4, symSize: 0x24 }
  - { offsetInCU: 0x16F78, offset: 0x3DC98, size: 0x8, addend: 0x0, symName: __ZNSt3__112__hash_tableINS_17__hash_value_typeINS_12basic_stringIcNS_11char_traitsIcEENS_9allocatorIcEEEEMN2UI4MenuEFvvEEENS_22__unordered_map_hasherIS7_SC_NS_4hashIS7_EENS_8equal_toIS7_EELb1EEENS_21__unordered_map_equalIS7_SC_SH_SF_Lb1EEENS5_ISC_EEE8__rehashILb1EEEvm, symObjAddr: 0x6918, symBinAddr: 0x10000C9F8, symSize: 0x1A8 }
  - { offsetInCU: 0x16FC6, offset: 0x3DCE6, size: 0x8, addend: 0x0, symName: __ZNSt3__112__hash_tableINS_17__hash_value_typeINS_12basic_stringIcNS_11char_traitsIcEENS_9allocatorIcEEEEMN2UI4MenuEFvvEEENS_22__unordered_map_hasherIS7_SC_NS_4hashIS7_EENS_8equal_toIS7_EELb1EEENS_21__unordered_map_equalIS7_SC_SH_SF_Lb1EEENS5_ISC_EEE11__do_rehashILb1EEEvm, symObjAddr: 0x6AC0, symBinAddr: 0x10000CBA0, symSize: 0x288 }
  - { offsetInCU: 0x170AB, offset: 0x3DDCB, size: 0x8, addend: 0x0, symName: __ZNSt3__110unique_ptrIA_PNS_16__hash_node_baseIPNS_11__hash_nodeINS_17__hash_value_typeINS_12basic_stringIcNS_11char_traitsIcEENS_9allocatorIcEEEEMN2UI4MenuEFvvEEEPvEEEENS_25__bucket_list_deallocatorINS7_ISJ_EEEEE11get_deleterB8ue170006Ev, symObjAddr: 0x6DB4, symBinAddr: 0x10000CE94, symSize: 0x24 }
  - { offsetInCU: 0x170D0, offset: 0x3DDF0, size: 0x8, addend: 0x0, symName: __ZNSt3__110unique_ptrIA_PNS_16__hash_node_baseIPNS_11__hash_nodeINS_17__hash_value_typeINS_12basic_stringIcNS_11char_traitsIcEENS_9allocatorIcEEEEMN2UI4MenuEFvvEEEPvEEEENS_25__bucket_list_deallocatorINS7_ISJ_EEEEE5resetB8ue170006IPSJ_EENS_9enable_ifIXsr28_CheckArrayPointerConversionIT_EE5valueEvE4typeESS_, symObjAddr: 0x6DD8, symBinAddr: 0x10000CEB8, symSize: 0x78 }
  - { offsetInCU: 0x1711C, offset: 0x3DE3C, size: 0x8, addend: 0x0, symName: __ZNSt3__116allocator_traitsINS_9allocatorIPNS_16__hash_node_baseIPNS_11__hash_nodeINS_17__hash_value_typeINS_12basic_stringIcNS_11char_traitsIcEENS1_IcEEEEMN2UI4MenuEFvvEEEPvEEEEEEE8allocateB8ue170006ERSK_m, symObjAddr: 0x6E50, symBinAddr: 0x10000CF30, symSize: 0x2C }
  - { offsetInCU: 0x1714F, offset: 0x3DE6F, size: 0x8, addend: 0x0, symName: __ZNSt3__19allocatorIPNS_16__hash_node_baseIPNS_11__hash_nodeINS_17__hash_value_typeINS_12basic_stringIcNS_11char_traitsIcEENS0_IcEEEEMN2UI4MenuEFvvEEEPvEEEEE8allocateB8ue170006Em, symObjAddr: 0x6E7C, symBinAddr: 0x10000CF5C, symSize: 0x58 }
  - { offsetInCU: 0x1718C, offset: 0x3DEAC, size: 0x8, addend: 0x0, symName: __ZNSt3__116allocator_traitsINS_9allocatorIPNS_16__hash_node_baseIPNS_11__hash_nodeINS_17__hash_value_typeINS_12basic_stringIcNS_11char_traitsIcEENS1_IcEEEEMN2UI4MenuEFvvEEEPvEEEEEEE8max_sizeB8ue170006ISK_vEEmRKSK_, symObjAddr: 0x6ED4, symBinAddr: 0x10000CFB4, symSize: 0x24 }
  - { offsetInCU: 0x171BA, offset: 0x3DEDA, size: 0x8, addend: 0x0, symName: __ZNKSt3__19allocatorIPNS_16__hash_node_baseIPNS_11__hash_nodeINS_17__hash_value_typeINS_12basic_stringIcNS_11char_traitsIcEENS0_IcEEEEMN2UI4MenuEFvvEEEPvEEEEE8max_sizeB8ue170006Ev, symObjAddr: 0x6F8C, symBinAddr: 0x10000CFD8, symSize: 0x14 }
  - { offsetInCU: 0x171E9, offset: 0x3DF09, size: 0x8, addend: 0x0, symName: __ZNKSt3__16__lessIvvEclB8ue170006ImmEEbRKT_RKT0_, symObjAddr: 0x7060, symBinAddr: 0x10000D05C, symSize: 0x34 }
  - { offsetInCU: 0x1723C, offset: 0x3DF5C, size: 0x8, addend: 0x0, symName: __ZNSt3__115__hash_iteratorIPNS_11__hash_nodeINS_17__hash_value_typeINS_12basic_stringIcNS_11char_traitsIcEENS_9allocatorIcEEEEMN2UI4MenuEFvvEEEPvEEEC2B8ue170006EPNS_16__hash_node_baseISG_EE, symObjAddr: 0x7094, symBinAddr: 0x10000D090, symSize: 0x20 }
  - { offsetInCU: 0x17274, offset: 0x3DF94, size: 0x8, addend: 0x0, symName: __ZNSt3__14pairINS_15__hash_iteratorIPNS_11__hash_nodeINS_17__hash_value_typeINS_12basic_stringIcNS_11char_traitsIcEENS_9allocatorIcEEEEMN2UI4MenuEFvvEEEPvEEEEbEC2B8ue170006ISI_RbLSF_0EEEOT_OT0_, symObjAddr: 0x70B4, symBinAddr: 0x10000D0B0, symSize: 0x38 }
  - { offsetInCU: 0x172D2, offset: 0x3DFF2, size: 0x8, addend: 0x0, symName: __ZNSt3__112__hash_tableINS_17__hash_value_typeINS_12basic_stringIcNS_11char_traitsIcEENS_9allocatorIcEEEEMN2UI4MenuEFvvEEENS_22__unordered_map_hasherIS7_SC_NS_4hashIS7_EENS_8equal_toIS7_EELb1EEENS_21__unordered_map_equalIS7_SC_SH_SF_Lb1EEENS5_ISC_EEE25__emplace_unique_key_argsIS7_JRKNS_4pairIKS7_SB_EEEEENSO_INS_15__hash_iteratorIPNS_11__hash_nodeISC_PvEEEEbEERKT_DpOT0_, symObjAddr: 0x70EC, symBinAddr: 0x10000D0E8, symSize: 0x4A0 }
  - { offsetInCU: 0x173B2, offset: 0x3E0D2, size: 0x8, addend: 0x0, symName: __ZNSt3__122__hash_key_value_typesINS_17__hash_value_typeINS_12basic_stringIcNS_11char_traitsIcEENS_9allocatorIcEEEEMN2UI4MenuEFvvEEEE9__get_keyB8ue170006ERKNS_4pairIKS7_SB_EE, symObjAddr: 0x758C, symBinAddr: 0x10000D588, symSize: 0x14 }
  - { offsetInCU: 0x173D5, offset: 0x3E0F5, size: 0x8, addend: 0x0, symName: __ZNKSt3__122__unordered_map_hasherINS_12basic_stringIcNS_11char_traitsIcEENS_9allocatorIcEEEENS_17__hash_value_typeIS6_MN2UI4MenuEFvvEEENS_4hashIS6_EENS_8equal_toIS6_EELb1EEclB8ue170006ERKS6_, symObjAddr: 0x75A0, symBinAddr: 0x10000D59C, symSize: 0x2C }
  - { offsetInCU: 0x17409, offset: 0x3E129, size: 0x8, addend: 0x0, symName: __ZNKSt3__121__unordered_map_equalINS_12basic_stringIcNS_11char_traitsIcEENS_9allocatorIcEEEENS_17__hash_value_typeIS6_MN2UI4MenuEFvvEEENS_8equal_toIS6_EENS_4hashIS6_EELb1EEclB8ue170006ERKSC_RKS6_, symObjAddr: 0x75CC, symBinAddr: 0x10000D5C8, symSize: 0x48 }
  - { offsetInCU: 0x1744C, offset: 0x3E16C, size: 0x8, addend: 0x0, symName: __ZNSt3__112__hash_tableINS_17__hash_value_typeINS_12basic_stringIcNS_11char_traitsIcEENS_9allocatorIcEEEEMN2UI4MenuEFvvEEENS_22__unordered_map_hasherIS7_SC_NS_4hashIS7_EENS_8equal_toIS7_EELb1EEENS_21__unordered_map_equalIS7_SC_SH_SF_Lb1EEENS5_ISC_EEE21__construct_node_hashIRKNS_4pairIKS7_SB_EEJEEENS_10unique_ptrINS_11__hash_nodeISC_PvEENS_22__hash_node_destructorINS5_ISW_EEEEEEmOT_DpOT0_, symObjAddr: 0x7614, symBinAddr: 0x10000D610, symSize: 0x140 }
  - { offsetInCU: 0x174BE, offset: 0x3E1DE, size: 0x8, addend: 0x0, symName: __ZNKSt3__110unique_ptrINS_11__hash_nodeINS_17__hash_value_typeINS_12basic_stringIcNS_11char_traitsIcEENS_9allocatorIcEEEEMN2UI4MenuEFvvEEEPvEENS_22__hash_node_destructorINS6_ISF_EEEEEptB8ue170006Ev, symObjAddr: 0x7754, symBinAddr: 0x10000D750, symSize: 0x28 }
  - { offsetInCU: 0x174E3, offset: 0x3E203, size: 0x8, addend: 0x0, symName: __ZNKSt3__110unique_ptrINS_11__hash_nodeINS_17__hash_value_typeINS_12basic_stringIcNS_11char_traitsIcEENS_9allocatorIcEEEEMN2UI4MenuEFvvEEEPvEENS_22__hash_node_destructorINS6_ISF_EEEEE3getB8ue170006Ev, symObjAddr: 0x777C, symBinAddr: 0x10000D778, symSize: 0x28 }
  - { offsetInCU: 0x17508, offset: 0x3E228, size: 0x8, addend: 0x0, symName: __ZNSt3__110unique_ptrINS_11__hash_nodeINS_17__hash_value_typeINS_12basic_stringIcNS_11char_traitsIcEENS_9allocatorIcEEEEMN2UI4MenuEFvvEEEPvEENS_22__hash_node_destructorINS6_ISF_EEEEE7releaseB8ue170006Ev, symObjAddr: 0x77A4, symBinAddr: 0x10000D7A0, symSize: 0x44 }
  - { offsetInCU: 0x1753C, offset: 0x3E25C, size: 0x8, addend: 0x0, symName: __ZNSt3__110unique_ptrINS_11__hash_nodeINS_17__hash_value_typeINS_12basic_stringIcNS_11char_traitsIcEENS_9allocatorIcEEEEMN2UI4MenuEFvvEEEPvEENS_22__hash_node_destructorINS6_ISF_EEEEED1B8ue170006Ev, symObjAddr: 0x77E8, symBinAddr: 0x10000D7E4, symSize: 0x2C }
  - { offsetInCU: 0x17564, offset: 0x3E284, size: 0x8, addend: 0x0, symName: __ZNSt3__116allocator_traitsINS_9allocatorINS_11__hash_nodeINS_17__hash_value_typeINS_12basic_stringIcNS_11char_traitsIcEENS1_IcEEEEMN2UI4MenuEFvvEEEPvEEEEE8allocateB8ue170006ERSG_m, symObjAddr: 0x7814, symBinAddr: 0x10000D810, symSize: 0x2C }
  - { offsetInCU: 0x17597, offset: 0x3E2B7, size: 0x8, addend: 0x0, symName: __ZNSt3__122__hash_node_destructorINS_9allocatorINS_11__hash_nodeINS_17__hash_value_typeINS_12basic_stringIcNS_11char_traitsIcEENS1_IcEEEEMN2UI4MenuEFvvEEEPvEEEEEC1B8ue170006ERSG_b, symObjAddr: 0x7840, symBinAddr: 0x10000D83C, symSize: 0x48 }
  - { offsetInCU: 0x175E2, offset: 0x3E302, size: 0x8, addend: 0x0, symName: __ZNSt3__110unique_ptrINS_11__hash_nodeINS_17__hash_value_typeINS_12basic_stringIcNS_11char_traitsIcEENS_9allocatorIcEEEEMN2UI4MenuEFvvEEEPvEENS_22__hash_node_destructorINS6_ISF_EEEEEC1B8ue170006ILb1EvEEPSF_NS_16__dependent_typeINS_27__unique_ptr_deleter_sfinaeISI_EEXT_EE20__good_rval_ref_typeE, symObjAddr: 0x7888, symBinAddr: 0x10000D884, symSize: 0x3C }
  - { offsetInCU: 0x17631, offset: 0x3E351, size: 0x8, addend: 0x0, symName: __ZNSt3__116allocator_traitsINS_9allocatorINS_11__hash_nodeINS_17__hash_value_typeINS_12basic_stringIcNS_11char_traitsIcEENS1_IcEEEEMN2UI4MenuEFvvEEEPvEEEEE9constructB8ue170006INS_4pairIKS8_SC_EEJRKSL_EvEEvRSG_PT_DpOT0_, symObjAddr: 0x78C4, symBinAddr: 0x10000D8C0, symSize: 0x34 }
  - { offsetInCU: 0x1768A, offset: 0x3E3AA, size: 0x8, addend: 0x0, symName: __ZNSt3__110unique_ptrINS_11__hash_nodeINS_17__hash_value_typeINS_12basic_stringIcNS_11char_traitsIcEENS_9allocatorIcEEEEMN2UI4MenuEFvvEEEPvEENS_22__hash_node_destructorINS6_ISF_EEEEE11get_deleterB8ue170006Ev, symObjAddr: 0x78F8, symBinAddr: 0x10000D8F4, symSize: 0x24 }
  - { offsetInCU: 0x176AF, offset: 0x3E3CF, size: 0x8, addend: 0x0, symName: __ZNSt3__19allocatorINS_11__hash_nodeINS_17__hash_value_typeINS_12basic_stringIcNS_11char_traitsIcEENS0_IcEEEEMN2UI4MenuEFvvEEEPvEEE8allocateB8ue170006Em, symObjAddr: 0x791C, symBinAddr: 0x10000D918, symSize: 0x5C }
  - { offsetInCU: 0x176EC, offset: 0x3E40C, size: 0x8, addend: 0x0, symName: __ZNSt3__116allocator_traitsINS_9allocatorINS_11__hash_nodeINS_17__hash_value_typeINS_12basic_stringIcNS_11char_traitsIcEENS1_IcEEEEMN2UI4MenuEFvvEEEPvEEEEE8max_sizeB8ue170006ISG_vEEmRKSG_, symObjAddr: 0x7978, symBinAddr: 0x10000D974, symSize: 0x24 }
  - { offsetInCU: 0x1771A, offset: 0x3E43A, size: 0x8, addend: 0x0, symName: __ZNKSt3__19allocatorINS_11__hash_nodeINS_17__hash_value_typeINS_12basic_stringIcNS_11char_traitsIcEENS0_IcEEEEMN2UI4MenuEFvvEEEPvEEE8max_sizeB8ue170006Ev, symObjAddr: 0x799C, symBinAddr: 0x10000D998, symSize: 0x20 }
  - { offsetInCU: 0x1773F, offset: 0x3E45F, size: 0x8, addend: 0x0, symName: __ZNSt3__122__hash_node_destructorINS_9allocatorINS_11__hash_nodeINS_17__hash_value_typeINS_12basic_stringIcNS_11char_traitsIcEENS1_IcEEEEMN2UI4MenuEFvvEEEPvEEEEEC2B8ue170006ERSG_b, symObjAddr: 0x79BC, symBinAddr: 0x10000D9B8, symSize: 0x38 }
  - { offsetInCU: 0x17786, offset: 0x3E4A6, size: 0x8, addend: 0x0, symName: __ZNSt3__110unique_ptrINS_11__hash_nodeINS_17__hash_value_typeINS_12basic_stringIcNS_11char_traitsIcEENS_9allocatorIcEEEEMN2UI4MenuEFvvEEEPvEENS_22__hash_node_destructorINS6_ISF_EEEEEC2B8ue170006ILb1EvEEPSF_NS_16__dependent_typeINS_27__unique_ptr_deleter_sfinaeISI_EEXT_EE20__good_rval_ref_typeE, symObjAddr: 0x79F4, symBinAddr: 0x10000D9F0, symSize: 0x48 }
  - { offsetInCU: 0x177D5, offset: 0x3E4F5, size: 0x8, addend: 0x0, symName: __ZNSt3__117__compressed_pairIPNS_11__hash_nodeINS_17__hash_value_typeINS_12basic_stringIcNS_11char_traitsIcEENS_9allocatorIcEEEEMN2UI4MenuEFvvEEEPvEENS_22__hash_node_destructorINS6_ISF_EEEEEC1B8ue170006IRSG_SJ_EEOT_OT0_, symObjAddr: 0x7A3C, symBinAddr: 0x10000DA38, symSize: 0x3C }
  - { offsetInCU: 0x1782B, offset: 0x3E54B, size: 0x8, addend: 0x0, symName: __ZNSt3__117__compressed_pairIPNS_11__hash_nodeINS_17__hash_value_typeINS_12basic_stringIcNS_11char_traitsIcEENS_9allocatorIcEEEEMN2UI4MenuEFvvEEEPvEENS_22__hash_node_destructorINS6_ISF_EEEEEC2B8ue170006IRSG_SJ_EEOT_OT0_, symObjAddr: 0x7A78, symBinAddr: 0x10000DA74, symSize: 0x48 }
  - { offsetInCU: 0x17881, offset: 0x3E5A1, size: 0x8, addend: 0x0, symName: __ZNSt3__122__compressed_pair_elemIPNS_11__hash_nodeINS_17__hash_value_typeINS_12basic_stringIcNS_11char_traitsIcEENS_9allocatorIcEEEEMN2UI4MenuEFvvEEEPvEELi0ELb0EEC2B8ue170006IRSG_vEEOT_, symObjAddr: 0x7AC0, symBinAddr: 0x10000DABC, symSize: 0x24 }
  - { offsetInCU: 0x178C2, offset: 0x3E5E2, size: 0x8, addend: 0x0, symName: __ZNSt3__122__compressed_pair_elemINS_22__hash_node_destructorINS_9allocatorINS_11__hash_nodeINS_17__hash_value_typeINS_12basic_stringIcNS_11char_traitsIcEENS2_IcEEEEMN2UI4MenuEFvvEEEPvEEEEEELi1ELb0EEC2B8ue170006ISI_vEEOT_, symObjAddr: 0x7AE4, symBinAddr: 0x10000DAE0, symSize: 0x24 }
  - { offsetInCU: 0x17903, offset: 0x3E623, size: 0x8, addend: 0x0, symName: __ZNSt3__19allocatorINS_11__hash_nodeINS_17__hash_value_typeINS_12basic_stringIcNS_11char_traitsIcEENS0_IcEEEEMN2UI4MenuEFvvEEEPvEEE9constructB8ue170006INS_4pairIKS7_SB_EEJRKSJ_EEEvPT_DpOT0_, symObjAddr: 0x7B08, symBinAddr: 0x10000DB04, symSize: 0x30 }
  - { offsetInCU: 0x1795A, offset: 0x3E67A, size: 0x8, addend: 0x0, symName: __ZNSt3__117__compressed_pairIPNS_11__hash_nodeINS_17__hash_value_typeINS_12basic_stringIcNS_11char_traitsIcEENS_9allocatorIcEEEEMN2UI4MenuEFvvEEEPvEENS_22__hash_node_destructorINS6_ISF_EEEEE6secondB8ue170006Ev, symObjAddr: 0x7B38, symBinAddr: 0x10000DB34, symSize: 0x28 }
  - { offsetInCU: 0x1797F, offset: 0x3E69F, size: 0x8, addend: 0x0, symName: __ZNSt3__122__compressed_pair_elemINS_22__hash_node_destructorINS_9allocatorINS_11__hash_nodeINS_17__hash_value_typeINS_12basic_stringIcNS_11char_traitsIcEENS2_IcEEEEMN2UI4MenuEFvvEEEPvEEEEEELi1ELb0EE5__getB8ue170006Ev, symObjAddr: 0x7B60, symBinAddr: 0x10000DB5C, symSize: 0x14 }
  - { offsetInCU: 0x179A4, offset: 0x3E6C4, size: 0x8, addend: 0x0, symName: __ZNKSt3__117__compressed_pairIPNS_11__hash_nodeINS_17__hash_value_typeINS_12basic_stringIcNS_11char_traitsIcEENS_9allocatorIcEEEEMN2UI4MenuEFvvEEEPvEENS_22__hash_node_destructorINS6_ISF_EEEEE5firstB8ue170006Ev, symObjAddr: 0x7B74, symBinAddr: 0x10000DB70, symSize: 0x24 }
  - { offsetInCU: 0x179C9, offset: 0x3E6E9, size: 0x8, addend: 0x0, symName: __ZNKSt3__122__compressed_pair_elemIPNS_11__hash_nodeINS_17__hash_value_typeINS_12basic_stringIcNS_11char_traitsIcEENS_9allocatorIcEEEEMN2UI4MenuEFvvEEEPvEELi0ELb0EE5__getB8ue170006Ev, symObjAddr: 0x7B98, symBinAddr: 0x10000DB94, symSize: 0x14 }
  - { offsetInCU: 0x179EE, offset: 0x3E70E, size: 0x8, addend: 0x0, symName: __ZNSt3__117__compressed_pairIPNS_11__hash_nodeINS_17__hash_value_typeINS_12basic_stringIcNS_11char_traitsIcEENS_9allocatorIcEEEEMN2UI4MenuEFvvEEEPvEENS_22__hash_node_destructorINS6_ISF_EEEEE5firstB8ue170006Ev, symObjAddr: 0x7BAC, symBinAddr: 0x10000DBA8, symSize: 0x24 }
  - { offsetInCU: 0x17A13, offset: 0x3E733, size: 0x8, addend: 0x0, symName: __ZNSt3__122__compressed_pair_elemIPNS_11__hash_nodeINS_17__hash_value_typeINS_12basic_stringIcNS_11char_traitsIcEENS_9allocatorIcEEEEMN2UI4MenuEFvvEEEPvEELi0ELb0EE5__getB8ue170006Ev, symObjAddr: 0x7BD0, symBinAddr: 0x10000DBCC, symSize: 0x14 }
  - { offsetInCU: 0x17A38, offset: 0x3E758, size: 0x8, addend: 0x0, symName: __ZNSt3__110unique_ptrINS_11__hash_nodeINS_17__hash_value_typeINS_12basic_stringIcNS_11char_traitsIcEENS_9allocatorIcEEEEMN2UI4MenuEFvvEEEPvEENS_22__hash_node_destructorINS6_ISF_EEEEED2B8ue170006Ev, symObjAddr: 0x7BE4, symBinAddr: 0x10000DBE0, symSize: 0x30 }
  - { offsetInCU: 0x17A60, offset: 0x3E780, size: 0x8, addend: 0x0, symName: __ZNSt3__110unique_ptrINS_11__hash_nodeINS_17__hash_value_typeINS_12basic_stringIcNS_11char_traitsIcEENS_9allocatorIcEEEEMN2UI4MenuEFvvEEEPvEENS_22__hash_node_destructorINS6_ISF_EEEEE5resetB8ue170006EPSF_, symObjAddr: 0x7C14, symBinAddr: 0x10000DC10, symSize: 0x78 }
  - { offsetInCU: 0x17AA3, offset: 0x3E7C3, size: 0x8, addend: 0x0, symName: __ZNSt3__122__hash_node_destructorINS_9allocatorINS_11__hash_nodeINS_17__hash_value_typeINS_12basic_stringIcNS_11char_traitsIcEENS1_IcEEEEMN2UI4MenuEFvvEEEPvEEEEEclB8ue170006EPSF_, symObjAddr: 0x7C8C, symBinAddr: 0x10000DC88, symSize: 0x94 }
  - { offsetInCU: 0x17AD7, offset: 0x3E7F7, size: 0x8, addend: 0x0, symName: __ZNSt3__112__hash_tableINS_17__hash_value_typeINS_12basic_stringIcNS_11char_traitsIcEENS_9allocatorIcEEEEMN2UI4MenuEFvvEEENS_22__unordered_map_hasherIS7_SC_NS_4hashIS7_EENS_8equal_toIS7_EELb1EEENS_21__unordered_map_equalIS7_SC_SH_SF_Lb1EEENS5_ISC_EEE5beginEv, symObjAddr: 0x7D20, symBinAddr: 0x10000DD1C, symSize: 0x38 }
  - { offsetInCU: 0x17AFD, offset: 0x3E81D, size: 0x8, addend: 0x0, symName: __ZNSt3__119__hash_map_iteratorINS_15__hash_iteratorIPNS_11__hash_nodeINS_17__hash_value_typeINS_12basic_stringIcNS_11char_traitsIcEENS_9allocatorIcEEEEMN2UI4MenuEFvvEEEPvEEEEEC1B8ue170006ESI_, symObjAddr: 0x7D58, symBinAddr: 0x10000DD54, symSize: 0x34 }
  - { offsetInCU: 0x17B34, offset: 0x3E854, size: 0x8, addend: 0x0, symName: __ZNSt3__119__hash_map_iteratorINS_15__hash_iteratorIPNS_11__hash_nodeINS_17__hash_value_typeINS_12basic_stringIcNS_11char_traitsIcEENS_9allocatorIcEEEEMN2UI4MenuEFvvEEEPvEEEEEC2B8ue170006ESI_, symObjAddr: 0x7D8C, symBinAddr: 0x10000DD88, symSize: 0x20 }
  - { offsetInCU: 0x17B6C, offset: 0x3E88C, size: 0x8, addend: 0x0, symName: __ZNSt3__112__hash_tableINS_17__hash_value_typeINS_12basic_stringIcNS_11char_traitsIcEENS_9allocatorIcEEEEMN2UI4MenuEFvvEEENS_22__unordered_map_hasherIS7_SC_NS_4hashIS7_EENS_8equal_toIS7_EELb1EEENS_21__unordered_map_equalIS7_SC_SH_SF_Lb1EEENS5_ISC_EEE3endEv, symObjAddr: 0x7DAC, symBinAddr: 0x10000DDA8, symSize: 0x2C }
  - { offsetInCU: 0x17B92, offset: 0x3E8B2, size: 0x8, addend: 0x0, symName: __ZNSt3__115__hash_iteratorIPNS_11__hash_nodeINS_17__hash_value_typeINS_12basic_stringIcNS_11char_traitsIcEENS_9allocatorIcEEEEMN2UI4MenuEFvvEEEPvEEEppB8ue170006Ev, symObjAddr: 0x7E3C, symBinAddr: 0x10000DE38, symSize: 0x20 }
  - { offsetInCU: 0x17BB7, offset: 0x3E8D7, size: 0x8, addend: 0x0, symName: __ZNKSt3__115__hash_iteratorIPNS_11__hash_nodeINS_17__hash_value_typeINS_12basic_stringIcNS_11char_traitsIcEENS_9allocatorIcEEEEMN2UI4MenuEFvvEEEPvEEEptB8ue170006Ev, symObjAddr: 0x7E5C, symBinAddr: 0x10000DE58, symSize: 0x30 }
  - { offsetInCU: 0x17BDC, offset: 0x3E8FC, size: 0x8, addend: 0x0, symName: __ZNSt3__114pointer_traitsIPNS_17__hash_value_typeINS_12basic_stringIcNS_11char_traitsIcEENS_9allocatorIcEEEEMN2UI4MenuEFvvEEEE10pointer_toB8ue170006ERSC_, symObjAddr: 0x7E8C, symBinAddr: 0x10000DE88, symSize: 0x14 }
  - { offsetInCU: 0x17C1D, offset: 0x3E93D, size: 0x8, addend: 0x0, symName: __ZNKSt3__113basic_ostreamIcNS_11char_traitsIcEEE6sentrycvbB8ue170006Ev, symObjAddr: 0x808C, symBinAddr: 0x10000E088, symSize: 0x1C }
  - { offsetInCU: 0x17C42, offset: 0x3E962, size: 0x8, addend: 0x0, symName: __ZNSt3__119ostreambuf_iteratorIcNS_11char_traitsIcEEEC1B8ue170006ERNS_13basic_ostreamIcS2_EE, symObjAddr: 0x82E8, symBinAddr: 0x10000E2E4, symSize: 0x34 }
  - { offsetInCU: 0x17C78, offset: 0x3E998, size: 0x8, addend: 0x0, symName: __ZNKSt3__18ios_base5flagsB8ue170006Ev, symObjAddr: 0x831C, symBinAddr: 0x10000E318, symSize: 0x18 }
  - { offsetInCU: 0x17C9F, offset: 0x3E9BF, size: 0x8, addend: 0x0, symName: __ZNKSt3__19basic_iosIcNS_11char_traitsIcEEE4fillB8ue170006Ev, symObjAddr: 0x8334, symBinAddr: 0x10000E330, symSize: 0x64 }
  - { offsetInCU: 0x17CC5, offset: 0x3E9E5, size: 0x8, addend: 0x0, symName: __ZNKSt3__119ostreambuf_iteratorIcNS_11char_traitsIcEEE6failedB8ue170006Ev, symObjAddr: 0x8398, symBinAddr: 0x10000E394, symSize: 0x24 }
  - { offsetInCU: 0x17CEA, offset: 0x3EA0A, size: 0x8, addend: 0x0, symName: __ZNSt3__115basic_streambufIcNS_11char_traitsIcEEE5sputnB8ue170006EPKcl, symObjAddr: 0x8400, symBinAddr: 0x10000E3B8, symSize: 0x3C }
  - { offsetInCU: 0x17D2B, offset: 0x3EA4B, size: 0x8, addend: 0x0, symName: __ZNSt3__112basic_stringIcNS_11char_traitsIcEENS_9allocatorIcEEEC1B8ue170006Emc, symObjAddr: 0x843C, symBinAddr: 0x10000E3F4, symSize: 0x3C }
  - { offsetInCU: 0x17D71, offset: 0x3EA91, size: 0x8, addend: 0x0, symName: __ZNSt3__112basic_stringIcNS_11char_traitsIcEENS_9allocatorIcEEE4dataB8ue170006Ev, symObjAddr: 0x8478, symBinAddr: 0x10000E430, symSize: 0x28 }
  - { offsetInCU: 0x17D96, offset: 0x3EAB6, size: 0x8, addend: 0x0, symName: __ZNSt3__112basic_stringIcNS_11char_traitsIcEENS_9allocatorIcEEEC2B8ue170006Emc, symObjAddr: 0x84CC, symBinAddr: 0x10000E458, symSize: 0x4C }
  - { offsetInCU: 0x17DDC, offset: 0x3EAFC, size: 0x8, addend: 0x0, symName: __ZNSt3__119ostreambuf_iteratorIcNS_11char_traitsIcEEEC2B8ue170006ERNS_13basic_ostreamIcS2_EE, symObjAddr: 0x8580, symBinAddr: 0x10000E4B8, symSize: 0x54 }
  - { offsetInCU: 0x17E12, offset: 0x3EB32, size: 0x8, addend: 0x0, symName: __ZNKSt3__19basic_iosIcNS_11char_traitsIcEEE5widenB8ue170006Ec, symObjAddr: 0x8640, symBinAddr: 0x10000E50C, symSize: 0x84 }
  - { offsetInCU: 0x17E4C, offset: 0x3EB6C, size: 0x8, addend: 0x0, symName: __ZNKSt3__15ctypeIcE5widenB8ue170006Ec, symObjAddr: 0x86F0, symBinAddr: 0x10000E590, symSize: 0x38 }
  - { offsetInCU: 0x17E80, offset: 0x3EBA0, size: 0x8, addend: 0x0, symName: __ZNSt3__112__hash_tableINS_17__hash_value_typeINS_12basic_stringIcNS_11char_traitsIcEENS_9allocatorIcEEEEMN2UI4MenuEFvvEEENS_22__unordered_map_hasherIS7_SC_NS_4hashIS7_EENS_8equal_toIS7_EELb1EEENS_21__unordered_map_equalIS7_SC_SH_SF_Lb1EEENS5_ISC_EEE4findIS7_EENS_15__hash_iteratorIPNS_11__hash_nodeISC_PvEEEERKT_, symObjAddr: 0x875C, symBinAddr: 0x10000E5C8, symSize: 0x1B0 }
  - { offsetInCU: 0x17F09, offset: 0x3EC29, size: 0x8, addend: 0x0, symName: __ZNSt3__114pointer_traitsIPNS_4pairIKNS_12basic_stringIcNS_11char_traitsIcEENS_9allocatorIcEEEEMN2UI4MenuEFvvEEEE10pointer_toB8ue170006ERSD_, symObjAddr: 0x890C, symBinAddr: 0x10000E778, symSize: 0x14 }
  - { offsetInCU: 0x17F2C, offset: 0x3EC4C, size: 0x8, addend: 0x0, symName: __ZNSt3__112__hash_tableINS_17__hash_value_typeIj5StockEENS_22__unordered_map_hasherIjS3_NS_4hashIjEENS_8equal_toIjEELb1EEENS_21__unordered_map_equalIjS3_S8_S6_Lb1EEENS_9allocatorIS3_EEE5beginEv, symObjAddr: 0x8920, symBinAddr: 0x10000E78C, symSize: 0x38 }
  - { offsetInCU: 0x17F52, offset: 0x3EC72, size: 0x8, addend: 0x0, symName: __ZNSt3__119__hash_map_iteratorINS_15__hash_iteratorIPNS_11__hash_nodeINS_17__hash_value_typeIj5StockEEPvEEEEEC1B8ue170006ES9_, symObjAddr: 0x8958, symBinAddr: 0x10000E7C4, symSize: 0x34 }
  - { offsetInCU: 0x17F89, offset: 0x3ECA9, size: 0x8, addend: 0x0, symName: __ZNSt3__115__hash_iteratorIPNS_11__hash_nodeINS_17__hash_value_typeIj5StockEEPvEEEC1B8ue170006EPNS_16__hash_node_baseIS7_EE, symObjAddr: 0x898C, symBinAddr: 0x10000E7F8, symSize: 0x34 }
  - { offsetInCU: 0x17FC0, offset: 0x3ECE0, size: 0x8, addend: 0x0, symName: __ZNSt3__115__hash_iteratorIPNS_11__hash_nodeINS_17__hash_value_typeIj5StockEEPvEEEC2B8ue170006EPNS_16__hash_node_baseIS7_EE, symObjAddr: 0x89C0, symBinAddr: 0x10000E82C, symSize: 0x20 }
  - { offsetInCU: 0x17FF8, offset: 0x3ED18, size: 0x8, addend: 0x0, symName: __ZNSt3__119__hash_map_iteratorINS_15__hash_iteratorIPNS_11__hash_nodeINS_17__hash_value_typeIj5StockEEPvEEEEEC2B8ue170006ES9_, symObjAddr: 0x89E0, symBinAddr: 0x10000E84C, symSize: 0x20 }
  - { offsetInCU: 0x18030, offset: 0x3ED50, size: 0x8, addend: 0x0, symName: __ZNSt3__112__hash_tableINS_17__hash_value_typeIj5StockEENS_22__unordered_map_hasherIjS3_NS_4hashIjEENS_8equal_toIjEELb1EEENS_21__unordered_map_equalIjS3_S8_S6_Lb1EEENS_9allocatorIS3_EEE3endEv, symObjAddr: 0x8A00, symBinAddr: 0x10000E86C, symSize: 0x2C }
  - { offsetInCU: 0x18056, offset: 0x3ED76, size: 0x8, addend: 0x0, symName: __ZNSt3__115__hash_iteratorIPNS_11__hash_nodeINS_17__hash_value_typeIj5StockEEPvEEEppB8ue170006Ev, symObjAddr: 0x8A90, symBinAddr: 0x10000E8FC, symSize: 0x20 }
  - { offsetInCU: 0x1807B, offset: 0x3ED9B, size: 0x8, addend: 0x0, symName: __ZNKSt3__115__hash_iteratorIPNS_11__hash_nodeINS_17__hash_value_typeIj5StockEEPvEEEptB8ue170006Ev, symObjAddr: 0x8AB0, symBinAddr: 0x10000E91C, symSize: 0x30 }
  - { offsetInCU: 0x180A0, offset: 0x3EDC0, size: 0x8, addend: 0x0, symName: __ZNSt3__114pointer_traitsIPNS_17__hash_value_typeIj5StockEEE10pointer_toB8ue170006ERS3_, symObjAddr: 0x8AE0, symBinAddr: 0x10000E94C, symSize: 0x14 }
  - { offsetInCU: 0x180C3, offset: 0x3EDE3, size: 0x8, addend: 0x0, symName: __ZNSt3__112__hash_tableINS_17__hash_value_typeIj5StockEENS_22__unordered_map_hasherIjS3_NS_4hashIjEENS_8equal_toIjEELb1EEENS_21__unordered_map_equalIjS3_S8_S6_Lb1EEENS_9allocatorIS3_EEE4findIjEENS_15__hash_iteratorIPNS_11__hash_nodeIS3_PvEEEERKT_, symObjAddr: 0x8AF4, symBinAddr: 0x10000E960, symSize: 0x1B0 }
  - { offsetInCU: 0x1814C, offset: 0x3EE6C, size: 0x8, addend: 0x0, symName: __ZNKSt3__122__unordered_map_hasherIjNS_17__hash_value_typeIj5StockEENS_4hashIjEENS_8equal_toIjEELb1EEclB8ue170006ERKj, symObjAddr: 0x8CA4, symBinAddr: 0x10000EB10, symSize: 0x30 }
  - { offsetInCU: 0x18180, offset: 0x3EEA0, size: 0x8, addend: 0x0, symName: __ZNKSt3__121__unordered_map_equalIjNS_17__hash_value_typeIj5StockEENS_8equal_toIjEENS_4hashIjEELb1EEclB8ue170006ERKS3_RKj, symObjAddr: 0x8CD4, symBinAddr: 0x10000EB40, symSize: 0x48 }
  - { offsetInCU: 0x181C3, offset: 0x3EEE3, size: 0x8, addend: 0x0, symName: __ZNKSt3__14hashIjEclB8ue170006Ej, symObjAddr: 0x8D1C, symBinAddr: 0x10000EB88, symSize: 0x1C }
  - { offsetInCU: 0x181F7, offset: 0x3EF17, size: 0x8, addend: 0x0, symName: __ZNKSt3__18equal_toIjEclB8ue170006ERKjS3_, symObjAddr: 0x8D38, symBinAddr: 0x10000EBA4, symSize: 0x34 }
  - { offsetInCU: 0x1823A, offset: 0x3EF5A, size: 0x8, addend: 0x0, symName: __ZNKSt3__117__hash_value_typeIj5StockE11__get_valueB8ue170006Ev, symObjAddr: 0x8D6C, symBinAddr: 0x10000EBD8, symSize: 0x24 }
  - { offsetInCU: 0x1825F, offset: 0x3EF7F, size: 0x8, addend: 0x0, symName: __ZNSt3__114pointer_traitsIPNS_4pairIKj5StockEEE10pointer_toB8ue170006ERS4_, symObjAddr: 0x8DC8, symBinAddr: 0x10000EC34, symSize: 0x14 }
  - { offsetInCU: 0x18282, offset: 0x3EFA2, size: 0x8, addend: 0x0, symName: __ZNSt3__112__hash_tableINS_17__hash_value_typeIj5StockEENS_22__unordered_map_hasherIjS3_NS_4hashIjEENS_8equal_toIjEELb1EEENS_21__unordered_map_equalIjS3_S8_S6_Lb1EEENS_9allocatorIS3_EEE5eraseENS_21__hash_const_iteratorIPNS_11__hash_nodeIS3_PvEEEE, symObjAddr: 0x8DDC, symBinAddr: 0x10000EC48, symSize: 0x70 }
  - { offsetInCU: 0x182D5, offset: 0x3EFF5, size: 0x8, addend: 0x0, symName: __ZNSt3__121__hash_const_iteratorIPNS_11__hash_nodeINS_17__hash_value_typeIj5StockEEPvEEEC1B8ue170006ERKNS_15__hash_iteratorIS7_EE, symObjAddr: 0x8E4C, symBinAddr: 0x10000ECB8, symSize: 0x34 }
  - { offsetInCU: 0x1830C, offset: 0x3F02C, size: 0x8, addend: 0x0, symName: __ZNSt3__112__hash_tableINS_17__hash_value_typeIj5StockEENS_22__unordered_map_hasherIjS3_NS_4hashIjEENS_8equal_toIjEELb1EEENS_21__unordered_map_equalIjS3_S8_S6_Lb1EEENS_9allocatorIS3_EEE6removeENS_21__hash_const_iteratorIPNS_11__hash_nodeIS3_PvEEEE, symObjAddr: 0x8E80, symBinAddr: 0x10000ECEC, symSize: 0x220 }
  - { offsetInCU: 0x1839C, offset: 0x3F0BC, size: 0x8, addend: 0x0, symName: __ZNSt3__110unique_ptrINS_11__hash_nodeINS_17__hash_value_typeIj5StockEEPvEENS_22__hash_node_destructorINS_9allocatorIS6_EEEEED1B8ue170006Ev, symObjAddr: 0x90A0, symBinAddr: 0x10000EF0C, symSize: 0x2C }
  - { offsetInCU: 0x183C4, offset: 0x3F0E4, size: 0x8, addend: 0x0, symName: __ZNSt3__122__hash_node_destructorINS_9allocatorINS_11__hash_nodeINS_17__hash_value_typeIj5StockEEPvEEEEEC1B8ue170006ERS8_b, symObjAddr: 0x90CC, symBinAddr: 0x10000EF38, symSize: 0x48 }
  - { offsetInCU: 0x1840F, offset: 0x3F12F, size: 0x8, addend: 0x0, symName: __ZNSt3__110unique_ptrINS_11__hash_nodeINS_17__hash_value_typeIj5StockEEPvEENS_22__hash_node_destructorINS_9allocatorIS6_EEEEEC1B8ue170006ILb1EvEEPS6_NS_16__dependent_typeINS_27__unique_ptr_deleter_sfinaeISA_EEXT_EE20__good_rval_ref_typeE, symObjAddr: 0x9114, symBinAddr: 0x10000EF80, symSize: 0x3C }
  - { offsetInCU: 0x1845E, offset: 0x3F17E, size: 0x8, addend: 0x0, symName: __ZNSt3__122__hash_node_destructorINS_9allocatorINS_11__hash_nodeINS_17__hash_value_typeIj5StockEEPvEEEEEC2B8ue170006ERS8_b, symObjAddr: 0x9150, symBinAddr: 0x10000EFBC, symSize: 0x38 }
  - { offsetInCU: 0x184A5, offset: 0x3F1C5, size: 0x8, addend: 0x0, symName: __ZNSt3__110unique_ptrINS_11__hash_nodeINS_17__hash_value_typeIj5StockEEPvEENS_22__hash_node_destructorINS_9allocatorIS6_EEEEEC2B8ue170006ILb1EvEEPS6_NS_16__dependent_typeINS_27__unique_ptr_deleter_sfinaeISA_EEXT_EE20__good_rval_ref_typeE, symObjAddr: 0x9188, symBinAddr: 0x10000EFF4, symSize: 0x48 }
  - { offsetInCU: 0x184F4, offset: 0x3F214, size: 0x8, addend: 0x0, symName: __ZNSt3__117__compressed_pairIPNS_11__hash_nodeINS_17__hash_value_typeIj5StockEEPvEENS_22__hash_node_destructorINS_9allocatorIS6_EEEEEC1B8ue170006IRS7_SB_EEOT_OT0_, symObjAddr: 0x91D0, symBinAddr: 0x10000F03C, symSize: 0x3C }
  - { offsetInCU: 0x1854A, offset: 0x3F26A, size: 0x8, addend: 0x0, symName: __ZNSt3__117__compressed_pairIPNS_11__hash_nodeINS_17__hash_value_typeIj5StockEEPvEENS_22__hash_node_destructorINS_9allocatorIS6_EEEEEC2B8ue170006IRS7_SB_EEOT_OT0_, symObjAddr: 0x920C, symBinAddr: 0x10000F078, symSize: 0x48 }
  - { offsetInCU: 0x185A0, offset: 0x3F2C0, size: 0x8, addend: 0x0, symName: __ZNSt3__122__compressed_pair_elemIPNS_11__hash_nodeINS_17__hash_value_typeIj5StockEEPvEELi0ELb0EEC2B8ue170006IRS7_vEEOT_, symObjAddr: 0x9254, symBinAddr: 0x10000F0C0, symSize: 0x24 }
  - { offsetInCU: 0x185E1, offset: 0x3F301, size: 0x8, addend: 0x0, symName: __ZNSt3__122__compressed_pair_elemINS_22__hash_node_destructorINS_9allocatorINS_11__hash_nodeINS_17__hash_value_typeIj5StockEEPvEEEEEELi1ELb0EEC2B8ue170006ISA_vEEOT_, symObjAddr: 0x9278, symBinAddr: 0x10000F0E4, symSize: 0x24 }
  - { offsetInCU: 0x18622, offset: 0x3F342, size: 0x8, addend: 0x0, symName: __ZNSt3__110unique_ptrINS_11__hash_nodeINS_17__hash_value_typeIj5StockEEPvEENS_22__hash_node_destructorINS_9allocatorIS6_EEEEED2B8ue170006Ev, symObjAddr: 0x929C, symBinAddr: 0x10000F108, symSize: 0x30 }
  - { offsetInCU: 0x1864A, offset: 0x3F36A, size: 0x8, addend: 0x0, symName: __ZNSt3__110unique_ptrINS_11__hash_nodeINS_17__hash_value_typeIj5StockEEPvEENS_22__hash_node_destructorINS_9allocatorIS6_EEEEE5resetB8ue170006EPS6_, symObjAddr: 0x92CC, symBinAddr: 0x10000F138, symSize: 0x78 }
  - { offsetInCU: 0x1868D, offset: 0x3F3AD, size: 0x8, addend: 0x0, symName: __ZNSt3__117__compressed_pairIPNS_11__hash_nodeINS_17__hash_value_typeIj5StockEEPvEENS_22__hash_node_destructorINS_9allocatorIS6_EEEEE5firstB8ue170006Ev, symObjAddr: 0x9344, symBinAddr: 0x10000F1B0, symSize: 0x24 }
  - { offsetInCU: 0x186B2, offset: 0x3F3D2, size: 0x8, addend: 0x0, symName: __ZNSt3__117__compressed_pairIPNS_11__hash_nodeINS_17__hash_value_typeIj5StockEEPvEENS_22__hash_node_destructorINS_9allocatorIS6_EEEEE6secondB8ue170006Ev, symObjAddr: 0x9368, symBinAddr: 0x10000F1D4, symSize: 0x28 }
  - { offsetInCU: 0x186D7, offset: 0x3F3F7, size: 0x8, addend: 0x0, symName: __ZNSt3__122__hash_node_destructorINS_9allocatorINS_11__hash_nodeINS_17__hash_value_typeIj5StockEEPvEEEEEclB8ue170006EPS7_, symObjAddr: 0x9390, symBinAddr: 0x10000F1FC, symSize: 0x94 }
  - { offsetInCU: 0x1870B, offset: 0x3F42B, size: 0x8, addend: 0x0, symName: __ZNSt3__122__compressed_pair_elemIPNS_11__hash_nodeINS_17__hash_value_typeIj5StockEEPvEELi0ELb0EE5__getB8ue170006Ev, symObjAddr: 0x9424, symBinAddr: 0x10000F290, symSize: 0x14 }
  - { offsetInCU: 0x18730, offset: 0x3F450, size: 0x8, addend: 0x0, symName: __ZNSt3__122__compressed_pair_elemINS_22__hash_node_destructorINS_9allocatorINS_11__hash_nodeINS_17__hash_value_typeIj5StockEEPvEEEEEELi1ELb0EE5__getB8ue170006Ev, symObjAddr: 0x9438, symBinAddr: 0x10000F2A4, symSize: 0x14 }
  - { offsetInCU: 0x18755, offset: 0x3F475, size: 0x8, addend: 0x0, symName: __ZNSt3__121__hash_const_iteratorIPNS_11__hash_nodeINS_17__hash_value_typeIj5StockEEPvEEEC2B8ue170006ERKNS_15__hash_iteratorIS7_EE, symObjAddr: 0x944C, symBinAddr: 0x10000F2B8, symSize: 0x24 }
  - { offsetInCU: 0x5C, offset: 0x3F6C5, size: 0x8, addend: 0x0, symName: __ZNSt3__119piecewise_constructE, symObjAddr: 0xAD07, symBinAddr: 0x10001F0A8, symSize: 0x0 }
  - { offsetInCU: 0x6D8F, offset: 0x463F8, size: 0x8, addend: 0x0, symName: __ZNSt3__16copy_nB8ue170006IPKcmPcEENS_9enable_ifIXsr37__has_random_access_iterator_categoryIT_EE5valueET1_E4typeES5_T0_S6_, symObjAddr: 0x9D6C, symBinAddr: 0x10001625C, symSize: 0x44 }
  - { offsetInCU: 0x7928, offset: 0x46F91, size: 0x8, addend: 0x0, symName: __ZNSt3__1plB8ue170006IcNS_11char_traitsIcEENS_9allocatorIcEEEENS_12basic_stringIT_T0_T1_EEOS9_SA_, symObjAddr: 0x850, symBinAddr: 0x10000FA5C, symSize: 0x40 }
  - { offsetInCU: 0x7980, offset: 0x46FE9, size: 0x8, addend: 0x0, symName: __ZNSt3__1neB8ue170006IPcEEbRKNS_11__wrap_iterIT_EES6_, symObjAddr: 0x1180, symBinAddr: 0x100010358, symSize: 0x34 }
  - { offsetInCU: 0x8576, offset: 0x47BDF, size: 0x8, addend: 0x0, symName: __ZNSt3__1eqB8ue170006ERKNS_19__hash_map_iteratorINS_15__hash_iteratorIPNS_11__hash_nodeINS_17__hash_value_typeINS_12basic_stringIcNS_11char_traitsIcEENS_9allocatorIcEEEES9_EEPvEEEEEESH_, symObjAddr: 0x1344, symBinAddr: 0x10001051C, symSize: 0x30 }
  - { offsetInCU: 0x85B3, offset: 0x47C1C, size: 0x8, addend: 0x0, symName: __ZNSt3__1plB8ue170006IcNS_11char_traitsIcEENS_9allocatorIcEEEENS_12basic_stringIT_T0_T1_EEOS9_S6_, symObjAddr: 0x1694, symBinAddr: 0x1000107A4, symSize: 0x40 }
  - { offsetInCU: 0x860B, offset: 0x47C74, size: 0x8, addend: 0x0, symName: __ZNSt3__1plB8ue170006IcNS_11char_traitsIcEENS_9allocatorIcEEEENS_12basic_stringIT_T0_T1_EES6_RKS9_, symObjAddr: 0x16D4, symBinAddr: 0x1000107E4, symSize: 0x10C }
  - { offsetInCU: 0x8D6A, offset: 0x483D3, size: 0x8, addend: 0x0, symName: __ZNSt3__1eqB8ue170006IPcEEbRKNS_11__wrap_iterIT_EES6_, symObjAddr: 0x1B58, symBinAddr: 0x100010C00, symSize: 0x48 }
  - { offsetInCU: 0x8DAD, offset: 0x48416, size: 0x8, addend: 0x0, symName: __ZNSt3__122__make_exception_guardB8ue170006INS_6vectorINS_4pairINS_12basic_stringIcNS_11char_traitsIcEENS_9allocatorIcEEEES8_EENS6_IS9_EEE16__destroy_vectorEEENS_28__exception_guard_exceptionsIT_EESE_, symObjAddr: 0x2908, symBinAddr: 0x100010FD8, symSize: 0x40 }
  - { offsetInCU: 0x8DE2, offset: 0x4844B, size: 0x8, addend: 0x0, symName: __ZNSt3__119__allocate_at_leastB8ue170006INS_9allocatorINS_4pairINS_12basic_stringIcNS_11char_traitsIcEENS1_IcEEEES7_EEEEEENS_19__allocation_resultINS_16allocator_traitsIT_E7pointerEEERSC_m, symObjAddr: 0x2D04, symBinAddr: 0x1000113D4, symSize: 0x40 }
  - { offsetInCU: 0x8E25, offset: 0x4848E, size: 0x8, addend: 0x0, symName: __ZNSt3__13minB8ue170006ImEERKT_S3_S3_, symObjAddr: 0x2E5C, symBinAddr: 0x10001152C, symSize: 0x2C }
  - { offsetInCU: 0x8E68, offset: 0x484D1, size: 0x8, addend: 0x0, symName: __ZNSt3__13minB8ue170006ImNS_6__lessIvvEEEERKT_S5_S5_T0_, symObjAddr: 0x2EE8, symBinAddr: 0x1000115A4, symSize: 0x54 }
  - { offsetInCU: 0x8EC2, offset: 0x4852B, size: 0x8, addend: 0x0, symName: __ZNSt3__112__to_addressB8ue170006INS_4pairINS_12basic_stringIcNS_11char_traitsIcEENS_9allocatorIcEEEES7_EEEEPT_SA_, symObjAddr: 0x32E4, symBinAddr: 0x10001179C, symSize: 0x14 }
  - { offsetInCU: 0x8EF7, offset: 0x48560, size: 0x8, addend: 0x0, symName: __ZNSt3__142__uninitialized_allocator_move_if_noexceptB8ue170006INS_9allocatorINS_4pairINS_12basic_stringIcNS_11char_traitsIcEENS1_IcEEEES7_EEEENS_16reverse_iteratorIPS8_EESC_SC_EET2_RT_T0_T1_SD_, symObjAddr: 0x40DC, symBinAddr: 0x1000124C0, symSize: 0x12C }
  - { offsetInCU: 0x8F97, offset: 0x48600, size: 0x8, addend: 0x0, symName: __ZNSt3__14swapB8ue170006IPNS_4pairINS_12basic_stringIcNS_11char_traitsIcEENS_9allocatorIcEEEES7_EEEENS_9enable_ifIXaasr21is_move_constructibleIT_EE5valuesr18is_move_assignableISB_EE5valueEvE4typeERSB_SE_, symObjAddr: 0x4254, symBinAddr: 0x100012638, symSize: 0x3C }
  - { offsetInCU: 0x8FE8, offset: 0x48651, size: 0x8, addend: 0x0, symName: __ZNSt3__122__make_exception_guardB8ue170006INS_29_AllocatorDestroyRangeReverseINS_9allocatorINS_4pairINS_12basic_stringIcNS_11char_traitsIcEENS2_IcEEEES8_EEEENS_16reverse_iteratorIPS9_EEEEEENS_28__exception_guard_exceptionsIT_EESG_, symObjAddr: 0x4290, symBinAddr: 0x100012674, symSize: 0x4C }
  - { offsetInCU: 0x901E, offset: 0x48687, size: 0x8, addend: 0x0, symName: __ZNSt3__1neB8ue170006IPNS_4pairINS_12basic_stringIcNS_11char_traitsIcEENS_9allocatorIcEEEES7_EES9_EEbRKNS_16reverse_iteratorIT_EERKNSA_IT0_EE, symObjAddr: 0x4320, symBinAddr: 0x100012704, symSize: 0x48 }
  - { offsetInCU: 0x906A, offset: 0x486D3, size: 0x8, addend: 0x0, symName: __ZNSt3__112__to_addressB8ue170006INS_16reverse_iteratorIPNS_4pairINS_12basic_stringIcNS_11char_traitsIcEENS_9allocatorIcEEEES8_EEEEvEEu7__decayIDTclsr19__to_address_helperIT_EE6__callclsr3stdE7declvalIRKSC_EEEEESE_, symObjAddr: 0x4368, symBinAddr: 0x10001274C, symSize: 0x24 }
  - { offsetInCU: 0x90CA, offset: 0x48733, size: 0x8, addend: 0x0, symName: __ZNSt3__119__allocator_destroyB8ue170006INS_9allocatorINS_4pairINS_12basic_stringIcNS_11char_traitsIcEENS1_IcEEEES7_EEEENS_16reverse_iteratorINSA_IPS8_EEEESD_EEvRT_T0_T1_, symObjAddr: 0x4618, symBinAddr: 0x1000129FC, symSize: 0x70 }
  - { offsetInCU: 0x9130, offset: 0x48799, size: 0x8, addend: 0x0, symName: __ZNSt3__1neB8ue170006INS_16reverse_iteratorIPNS_4pairINS_12basic_stringIcNS_11char_traitsIcEENS_9allocatorIcEEEES8_EEEESB_EEbRKNS1_IT_EERKNS1_IT0_EE, symObjAddr: 0x46C4, symBinAddr: 0x100012AA8, symSize: 0x60 }
  - { offsetInCU: 0x917C, offset: 0x487E5, size: 0x8, addend: 0x0, symName: __ZNSt3__112__to_addressB8ue170006INS_16reverse_iteratorINS1_IPNS_4pairINS_12basic_stringIcNS_11char_traitsIcEENS_9allocatorIcEEEES8_EEEEEEvEEu7__decayIDTclsr19__to_address_helperIT_EE6__callclsr3stdE7declvalIRKSD_EEEEESF_, symObjAddr: 0x4724, symBinAddr: 0x100012B08, symSize: 0x24 }
  - { offsetInCU: 0x91DC, offset: 0x48845, size: 0x8, addend: 0x0, symName: __ZNSt3__1neB8ue170006IPNS_4pairINS_12basic_stringIcNS_11char_traitsIcEENS_9allocatorIcEEEES7_EEEEbRKNS_11__wrap_iterIT_EESE_, symObjAddr: 0x5248, symBinAddr: 0x1000135E4, symSize: 0x34 }
  - { offsetInCU: 0x921F, offset: 0x48888, size: 0x8, addend: 0x0, symName: __ZNSt3__1eqB8ue170006IPNS_4pairINS_12basic_stringIcNS_11char_traitsIcEENS_9allocatorIcEEEES7_EEEEbRKNS_11__wrap_iterIT_EESE_, symObjAddr: 0x52F0, symBinAddr: 0x10001368C, symSize: 0x48 }
  - { offsetInCU: 0x926B, offset: 0x488D4, size: 0x8, addend: 0x0, symName: __ZNSt3__17launderB8ue170006IKNS_4pairIKNS_12basic_stringIcNS_11char_traitsIcEENS_9allocatorIcEEEES7_EEEEPT_SC_, symObjAddr: 0x6F7C, symBinAddr: 0x100014248, symSize: 0x24 }
  - { offsetInCU: 0x92A2, offset: 0x4890B, size: 0x8, addend: 0x0, symName: __ZNSt3__19__launderB8ue170006IKNS_4pairIKNS_12basic_stringIcNS_11char_traitsIcEENS_9allocatorIcEEEES7_EEEEPT_SC_, symObjAddr: 0x6FA0, symBinAddr: 0x10001426C, symSize: 0x14 }
  - { offsetInCU: 0x932B, offset: 0x48994, size: 0x8, addend: 0x0, symName: __ZNSt3__17launderB8ue170006INS_4pairIKNS_12basic_stringIcNS_11char_traitsIcEENS_9allocatorIcEEEES7_EEEEPT_SB_, symObjAddr: 0x7428, symBinAddr: 0x1000146F4, symSize: 0x24 }
  - { offsetInCU: 0x9362, offset: 0x489CB, size: 0x8, addend: 0x0, symName: __ZNSt3__19__launderB8ue170006INS_4pairIKNS_12basic_stringIcNS_11char_traitsIcEENS_9allocatorIcEEEES7_EEEEPT_SB_, symObjAddr: 0x744C, symBinAddr: 0x100014718, symSize: 0x14 }
  - { offsetInCU: 0x939A, offset: 0x48A03, size: 0x8, addend: 0x0, symName: __ZNSt3__1eqB8ue170006ERKNS_15__hash_iteratorIPNS_11__hash_nodeINS_17__hash_value_typeINS_12basic_stringIcNS_11char_traitsIcEENS_9allocatorIcEEEES8_EEPvEEEESF_, symObjAddr: 0x842C, symBinAddr: 0x100015648, symSize: 0x30 }
  - { offsetInCU: 0x9410, offset: 0x48A79, size: 0x8, addend: 0x0, symName: __ZNSt3__116forward_as_tupleB8ue170006IJNS_12basic_stringIcNS_11char_traitsIcEENS_9allocatorIcEEEEEEENS_5tupleIJDpOT_EEESA_, symObjAddr: 0x9174, symBinAddr: 0x100015B28, symSize: 0x2C }
  - { offsetInCU: 0x944B, offset: 0x48AB4, size: 0x8, addend: 0x0, symName: __ZNSt3__116forward_as_tupleB8ue170006IJEEENS_5tupleIJDpOT_EEES4_, symObjAddr: 0x91A0, symBinAddr: 0x100015B54, symSize: 0x4 }
  - { offsetInCU: 0x947D, offset: 0x48AE6, size: 0x8, addend: 0x0, symName: __ZNSt3__13getB8ue170006ILm0EJONS_12basic_stringIcNS_11char_traitsIcEENS_9allocatorIcEEEEEEERNS_13tuple_elementIXT_ENS_5tupleIJDpT0_EEEE4typeERSC_, symObjAddr: 0x947C, symBinAddr: 0x100015E30, symSize: 0x24 }
  - { offsetInCU: 0x951C, offset: 0x48B85, size: 0x8, addend: 0x0, symName: __ZNSt3__16fill_nB8ue170006IPcmcEET_S2_T0_RKT1_, symObjAddr: 0x9CB0, symBinAddr: 0x1000161A0, symSize: 0x44 }
  - { offsetInCU: 0x957F, offset: 0x48BE8, size: 0x8, addend: 0x0, symName: __ZNSt3__18__fill_nB8ue170006IPcmcEET_S2_T0_RKT1_, symObjAddr: 0x9CF4, symBinAddr: 0x1000161E4, symSize: 0x64 }
  - { offsetInCU: 0x95E2, offset: 0x48C4B, size: 0x8, addend: 0x0, symName: __ZNSt3__121__convert_to_integralB8ue170006Em, symObjAddr: 0x9D58, symBinAddr: 0x100016248, symSize: 0x14 }
  - { offsetInCU: 0x960E, offset: 0x48C77, size: 0x8, addend: 0x0, symName: __ZNSt3__14copyB8ue170006IPKcPcEET0_T_S5_S4_, symObjAddr: 0x9DB0, symBinAddr: 0x1000162A0, symSize: 0x40 }
  - { offsetInCU: 0x9668, offset: 0x48CD1, size: 0x8, addend: 0x0, symName: __ZNSt3__16__copyB8ue170006INS_17_ClassicAlgPolicyEPKcS3_PcEENS_4pairIT0_T2_EES6_T1_S7_, symObjAddr: 0x9DF0, symBinAddr: 0x1000162E0, symSize: 0x44 }
  - { offsetInCU: 0x96D4, offset: 0x48D3D, size: 0x8, addend: 0x0, symName: __ZNSt3__123__dispatch_copy_or_moveB8ue170006INS_17_ClassicAlgPolicyENS_11__copy_loopIS1_EENS_14__copy_trivialEPKcS6_PcEENS_4pairIT2_T4_EES9_T3_SA_, symObjAddr: 0x9E34, symBinAddr: 0x100016324, symSize: 0x44 }
  - { offsetInCU: 0x9752, offset: 0x48DBB, size: 0x8, addend: 0x0, symName: __ZNSt3__121__unwrap_and_dispatchB8ue170006INS_10__overloadINS_11__copy_loopINS_17_ClassicAlgPolicyEEENS_14__copy_trivialEEEPKcS8_PcLi0EEENS_4pairIT0_T2_EESB_T1_SC_, symObjAddr: 0x9E78, symBinAddr: 0x100016368, symSize: 0xB4 }
  - { offsetInCU: 0x97E0, offset: 0x48E49, size: 0x8, addend: 0x0, symName: __ZNSt3__114__unwrap_rangeB8ue170006IPKcS2_EENS_4pairIT0_S4_EET_S6_, symObjAddr: 0x9F2C, symBinAddr: 0x10001641C, symSize: 0x60 }
  - { offsetInCU: 0x9977, offset: 0x48FE0, size: 0x8, addend: 0x0, symName: __ZNSt3__113__unwrap_iterB8ue170006IPcNS_18__unwrap_iter_implIS1_Lb1EEELi0EEEDTclsrT0_8__unwrapclsr3stdE7declvalIT_EEEES5_, symObjAddr: 0x9FD4, symBinAddr: 0x1000164C4, symSize: 0x24 }
  - { offsetInCU: 0x99BB, offset: 0x49024, size: 0x8, addend: 0x0, symName: __ZNSt3__19make_pairB8ue170006IPKcPcEENS_4pairINS_18__unwrap_ref_decayIT_E4typeENS5_IT0_E4typeEEEOS6_OS9_, symObjAddr: 0x9FF8, symBinAddr: 0x1000164E8, symSize: 0x38 }
  - { offsetInCU: 0x9A0A, offset: 0x49073, size: 0x8, addend: 0x0, symName: __ZNSt3__114__rewrap_rangeB8ue170006IPKcS2_EET_S3_T0_, symObjAddr: 0xA030, symBinAddr: 0x100016520, symSize: 0x2C }
  - { offsetInCU: 0x9A56, offset: 0x490BF, size: 0x8, addend: 0x0, symName: __ZNSt3__113__rewrap_iterB8ue170006IPcS1_NS_18__unwrap_iter_implIS1_Lb1EEEEET_S4_T0_, symObjAddr: 0xA05C, symBinAddr: 0x10001654C, symSize: 0x3C }
  - { offsetInCU: 0x9AAB, offset: 0x49114, size: 0x8, addend: 0x0, symName: __ZNSt3__19make_pairB8ue170006IPKcS2_EENS_4pairINS_18__unwrap_ref_decayIT_E4typeENS4_IT0_E4typeEEEOS5_OS8_, symObjAddr: 0xA098, symBinAddr: 0x100016588, symSize: 0x38 }
  - { offsetInCU: 0x9AFA, offset: 0x49163, size: 0x8, addend: 0x0, symName: __ZNSt3__113__unwrap_iterB8ue170006IPKcNS_18__unwrap_iter_implIS2_Lb1EEELi0EEEDTclsrT0_8__unwrapclsr3stdE7declvalIT_EEEES6_, symObjAddr: 0xA0D0, symBinAddr: 0x1000165C0, symSize: 0x24 }
  - { offsetInCU: 0x9C66, offset: 0x492CF, size: 0x8, addend: 0x0, symName: __ZNSt3__119__copy_trivial_implB8ue170006IKccEENS_4pairIPT_PT0_EES4_S4_S6_, symObjAddr: 0xA188, symBinAddr: 0x100016678, symSize: 0x78 }
  - { offsetInCU: 0x9CCE, offset: 0x49337, size: 0x8, addend: 0x0, symName: __ZNSt3__119__constexpr_memmoveB8ue170006IcKcLi0EEEPT_S3_PT0_NS_15__element_countE, symObjAddr: 0xA200, symBinAddr: 0x1000166F0, symSize: 0x64 }
  - { offsetInCU: 0x9D3C, offset: 0x493A5, size: 0x8, addend: 0x0, symName: __ZNSt3__19make_pairB8ue170006IRPKcPcEENS_4pairINS_18__unwrap_ref_decayIT_E4typeENS6_IT0_E4typeEEEOS7_OSA_, symObjAddr: 0xA264, symBinAddr: 0x100016754, symSize: 0x38 }
  - { offsetInCU: 0x9DDE, offset: 0x49447, size: 0x8, addend: 0x0, symName: __ZNSt3__113__rewrap_iterB8ue170006IPKcS2_NS_18__unwrap_iter_implIS2_Lb1EEEEET_S5_T0_, symObjAddr: 0xA3A0, symBinAddr: 0x100016890, symSize: 0x3C }
  - { offsetInCU: 0xA320, offset: 0x49989, size: 0x8, addend: 0x0, symName: __ZNSt3__16vectorINS_4pairINS_12basic_stringIcNS_11char_traitsIcEENS_9allocatorIcEEEES7_EENS5_IS8_EEE26__swap_out_circular_bufferERNS_14__split_bufferIS8_RS9_EE, symObjAddr: 0x3CE8, symBinAddr: 0x10001214C, symSize: 0x110 }
  - { offsetInCU: 0xC88C, offset: 0x4BEF5, size: 0x8, addend: 0x0, symName: __ZN7Network12updateApiKeyEv, symObjAddr: 0x0, symBinAddr: 0x10000F2DC, symSize: 0x28 }
  - { offsetInCU: 0xC8B3, offset: 0x4BF1C, size: 0x8, addend: 0x0, symName: __ZN7Network11updateStockER5Stock, symObjAddr: 0x28, symBinAddr: 0x10000F304, symSize: 0xC8 }
  - { offsetInCU: 0xC8F6, offset: 0x4BF5F, size: 0x8, addend: 0x0, symName: __ZN7Network17getDailyOpenCloseEj, symObjAddr: 0xF0, symBinAddr: 0x10000F3CC, symSize: 0x44C }
  - { offsetInCU: 0xC985, offset: 0x4BFEE, size: 0x8, addend: 0x0, symName: __ZN9StockData14DailyOpenCloseaSERKS0_, symObjAddr: 0x53C, symBinAddr: 0x10000F818, symSize: 0x78 }
  - { offsetInCU: 0xC9B5, offset: 0x4C01E, size: 0x8, addend: 0x0, symName: __ZN7Network18makePolygonRequestER14PolygonRequest, symObjAddr: 0x5E0, symBinAddr: 0x10000F890, symSize: 0x1CC }
  - { offsetInCU: 0xCA0C, offset: 0x4C075, size: 0x8, addend: 0x0, symName: __ZN14PolygonRequest6getUrlEv, symObjAddr: 0x8C4, symBinAddr: 0x10000FA9C, symSize: 0xF8 }
  - { offsetInCU: 0xCA31, offset: 0x4C09A, size: 0x8, addend: 0x0, symName: __ZN7Network4execEPKc, symObjAddr: 0x9BC, symBinAddr: 0x10000FB94, symSize: 0x20C }
  - { offsetInCU: 0xCA95, offset: 0x4C0FE, size: 0x8, addend: 0x0, symName: __Z15stringParseJsonRNSt3__112basic_stringIcNS_11char_traitsIcEENS_9allocatorIcEEEERb, symObjAddr: 0xBC8, symBinAddr: 0x10000FDA0, symSize: 0x474 }
  - { offsetInCU: 0xCB57, offset: 0x4C1C0, size: 0x8, addend: 0x0, symName: __ZNSt3__14pairINS_12basic_stringIcNS_11char_traitsIcEENS_9allocatorIcEEEES6_EC1B8ue170006IRA1_KcSB_LPv0EEEOT_OT0_, symObjAddr: 0x103C, symBinAddr: 0x100010214, symSize: 0x3C }
  - { offsetInCU: 0xCBB4, offset: 0x4C21D, size: 0x8, addend: 0x0, symName: __ZNSt3__16vectorINS_4pairINS_12basic_stringIcNS_11char_traitsIcEENS_9allocatorIcEEEES7_EENS5_IS8_EEEC1EmRKS8_, symObjAddr: 0x1078, symBinAddr: 0x100010250, symSize: 0x3C }
  - { offsetInCU: 0xCBFC, offset: 0x4C265, size: 0x8, addend: 0x0, symName: __ZNSt3__14pairINS_12basic_stringIcNS_11char_traitsIcEENS_9allocatorIcEEEES6_ED1Ev, symObjAddr: 0x10B4, symBinAddr: 0x10001028C, symSize: 0x2C }
  - { offsetInCU: 0xCC27, offset: 0x4C290, size: 0x8, addend: 0x0, symName: __ZNSt3__112basic_stringIcNS_11char_traitsIcEENS_9allocatorIcEEE5beginB8ue170006Ev, symObjAddr: 0x10E0, symBinAddr: 0x1000102B8, symSize: 0x4C }
  - { offsetInCU: 0xCC4C, offset: 0x4C2B5, size: 0x8, addend: 0x0, symName: __ZNSt3__112basic_stringIcNS_11char_traitsIcEENS_9allocatorIcEEE3endB8ue170006Ev, symObjAddr: 0x112C, symBinAddr: 0x100010304, symSize: 0x54 }
  - { offsetInCU: 0xCC71, offset: 0x4C2DA, size: 0x8, addend: 0x0, symName: __ZNKSt3__111__wrap_iterIPcEdeB8ue170006Ev, symObjAddr: 0x11B4, symBinAddr: 0x10001038C, symSize: 0x18 }
  - { offsetInCU: 0xCC96, offset: 0x4C2FF, size: 0x8, addend: 0x0, symName: __ZNSt3__16vectorINS_4pairINS_12basic_stringIcNS_11char_traitsIcEENS_9allocatorIcEEEES7_EENS5_IS8_EEE9push_backB8ue170006EOS8_, symObjAddr: 0x11CC, symBinAddr: 0x1000103A4, symSize: 0x6C }
  - { offsetInCU: 0xCCCB, offset: 0x4C334, size: 0x8, addend: 0x0, symName: __ZNSt3__16vectorINS_4pairINS_12basic_stringIcNS_11char_traitsIcEENS_9allocatorIcEEEES7_EENS5_IS8_EEE4backB8ue170006Ev, symObjAddr: 0x1238, symBinAddr: 0x100010410, symSize: 0x1C }
  - { offsetInCU: 0xCCF0, offset: 0x4C359, size: 0x8, addend: 0x0, symName: __ZNSt3__112basic_stringIcNS_11char_traitsIcEENS_9allocatorIcEEEpLB8ue170006Ec, symObjAddr: 0x1254, symBinAddr: 0x10001042C, symSize: 0x34 }
  - { offsetInCU: 0xCD24, offset: 0x4C38D, size: 0x8, addend: 0x0, symName: __ZNSt3__111__wrap_iterIPcEppB8ue170006Ev, symObjAddr: 0x1288, symBinAddr: 0x100010460, symSize: 0x20 }
  - { offsetInCU: 0xCD49, offset: 0x4C3B2, size: 0x8, addend: 0x0, symName: __ZNSt3__16vectorINS_4pairINS_12basic_stringIcNS_11char_traitsIcEENS_9allocatorIcEEEES7_EENS5_IS8_EEE5beginB8ue170006Ev, symObjAddr: 0x12A8, symBinAddr: 0x100010480, symSize: 0x30 }
  - { offsetInCU: 0xCD6F, offset: 0x4C3D8, size: 0x8, addend: 0x0, symName: __ZNSt3__16vectorINS_4pairINS_12basic_stringIcNS_11char_traitsIcEENS_9allocatorIcEEEES7_EENS5_IS8_EEE3endB8ue170006Ev, symObjAddr: 0x12D8, symBinAddr: 0x1000104B0, symSize: 0x30 }
  - { offsetInCU: 0xCE67, offset: 0x4C4D0, size: 0x8, addend: 0x0, symName: __ZNSt3__113unordered_mapINS_12basic_stringIcNS_11char_traitsIcEENS_9allocatorIcEEEES6_NS_4hashIS6_EENS_8equal_toIS6_EENS4_INS_4pairIKS6_S6_EEEEEC1INS_11__wrap_iterIPNSB_IS6_S6_EEEEEET_SL_, symObjAddr: 0x1308, symBinAddr: 0x1000104E0, symSize: 0x3C }
  - { offsetInCU: 0xCEB8, offset: 0x4C521, size: 0x8, addend: 0x0, symName: __ZNSt3__113unordered_mapINS_12basic_stringIcNS_11char_traitsIcEENS_9allocatorIcEEEES6_NS_4hashIS6_EENS_8equal_toIS6_EENS4_INS_4pairIKS6_S6_EEEEE4findB8ue170006ERSC_, symObjAddr: 0x1374, symBinAddr: 0x10001054C, symSize: 0x40 }
  - { offsetInCU: 0xCEEC, offset: 0x4C555, size: 0x8, addend: 0x0, symName: __ZNSt3__113unordered_mapINS_12basic_stringIcNS_11char_traitsIcEENS_9allocatorIcEEEES6_NS_4hashIS6_EENS_8equal_toIS6_EENS4_INS_4pairIKS6_S6_EEEEE3endB8ue170006Ev, symObjAddr: 0x13B4, symBinAddr: 0x10001058C, symSize: 0x38 }
  - { offsetInCU: 0xCF11, offset: 0x4C57A, size: 0x8, addend: 0x0, symName: __ZNSt3__113unordered_mapINS_12basic_stringIcNS_11char_traitsIcEENS_9allocatorIcEEEES6_NS_4hashIS6_EENS_8equal_toIS6_EENS4_INS_4pairIKS6_S6_EEEEEixEOS6_, symObjAddr: 0x1468, symBinAddr: 0x1000105C4, symSize: 0x80 }
  - { offsetInCU: 0xCF46, offset: 0x4C5AF, size: 0x8, addend: 0x0, symName: __ZNSt3__113unordered_mapINS_12basic_stringIcNS_11char_traitsIcEENS_9allocatorIcEEEES6_NS_4hashIS6_EENS_8equal_toIS6_EENS4_INS_4pairIKS6_S6_EEEEED1B8ue170006Ev, symObjAddr: 0x1534, symBinAddr: 0x100010644, symSize: 0x2C }
  - { offsetInCU: 0xCF6E, offset: 0x4C5D7, size: 0x8, addend: 0x0, symName: __ZNSt3__16vectorINS_4pairINS_12basic_stringIcNS_11char_traitsIcEENS_9allocatorIcEEEES7_EENS5_IS8_EEED1B8ue170006Ev, symObjAddr: 0x1560, symBinAddr: 0x100010670, symSize: 0x2C }
  - { offsetInCU: 0xCF96, offset: 0x4C5FF, size: 0x8, addend: 0x0, symName: __Z10jsonTryPutRNSt3__113unordered_mapINS_12basic_stringIcNS_11char_traitsIcEENS_9allocatorIcEEEES6_NS_4hashIS6_EENS_8equal_toIS6_EENS4_INS_4pairIKS6_S6_EEEEEES6_RS6_, symObjAddr: 0x158C, symBinAddr: 0x10001069C, symSize: 0x108 }
  - { offsetInCU: 0xCFE9, offset: 0x4C652, size: 0x8, addend: 0x0, symName: __ZNKSt3__119__hash_map_iteratorINS_15__hash_iteratorIPNS_11__hash_nodeINS_17__hash_value_typeINS_12basic_stringIcNS_11char_traitsIcEENS_9allocatorIcEEEES9_EEPvEEEEEptB8ue170006Ev, symObjAddr: 0x17E0, symBinAddr: 0x1000108F0, symSize: 0x2C }
  - { offsetInCU: 0xD00E, offset: 0x4C677, size: 0x8, addend: 0x0, symName: __Z10jsonTryPutRNSt3__113unordered_mapINS_12basic_stringIcNS_11char_traitsIcEENS_9allocatorIcEEEES6_NS_4hashIS6_EENS_8equal_toIS6_EENS4_INS_4pairIKS6_S6_EEEEEES6_Rd, symObjAddr: 0x180C, symBinAddr: 0x10001091C, symSize: 0x90 }
  - { offsetInCU: 0xD061, offset: 0x4C6CA, size: 0x8, addend: 0x0, symName: __ZN9StockData14DailyOpenCloseC1Ev, symObjAddr: 0x189C, symBinAddr: 0x1000109AC, symSize: 0x2C }
  - { offsetInCU: 0xD089, offset: 0x4C6F2, size: 0x8, addend: 0x0, symName: __ZN14PolygonRequestC1E18PolygonRequestTypej, symObjAddr: 0x18C8, symBinAddr: 0x1000109D8, symSize: 0x3C }
  - { offsetInCU: 0xD0CD, offset: 0x4C736, size: 0x8, addend: 0x0, symName: __ZN14PolygonRequestD1Ev, symObjAddr: 0x1904, symBinAddr: 0x100010A14, symSize: 0x2C }
  - { offsetInCU: 0xD19E, offset: 0x4C807, size: 0x8, addend: 0x0, symName: __ZNSt3__110unique_ptrI7__sFILEPFiPS1_EEC1B8ue170006ILb1EvEES2_NS_16__dependent_typeINS_27__unique_ptr_deleter_sfinaeIS4_EEXT_EE20__good_rval_ref_typeE, symObjAddr: 0x195C, symBinAddr: 0x100010A40, symSize: 0x3C }
  - { offsetInCU: 0xD1ED, offset: 0x4C856, size: 0x8, addend: 0x0, symName: __ZNKSt3__110unique_ptrI7__sFILEPFiPS1_EEcvbB8ue170006Ev, symObjAddr: 0x1998, symBinAddr: 0x100010A7C, symSize: 0x34 }
  - { offsetInCU: 0xD24A, offset: 0x4C8B3, size: 0x8, addend: 0x0, symName: __ZNSt3__15arrayIcLm128EE4dataB8ue170006Ev, symObjAddr: 0x19CC, symBinAddr: 0x100010AB0, symSize: 0x14 }
  - { offsetInCU: 0xD26F, offset: 0x4C8D8, size: 0x8, addend: 0x0, symName: __ZNKSt3__15arrayIcLm128EE4sizeB8ue170006Ev, symObjAddr: 0x19E0, symBinAddr: 0x100010AC4, symSize: 0x14 }
  - { offsetInCU: 0xD294, offset: 0x4C8FD, size: 0x8, addend: 0x0, symName: __ZNKSt3__110unique_ptrI7__sFILEPFiPS1_EE3getB8ue170006Ev, symObjAddr: 0x19F4, symBinAddr: 0x100010AD8, symSize: 0x28 }
  - { offsetInCU: 0xD2B9, offset: 0x4C922, size: 0x8, addend: 0x0, symName: __ZNSt3__112basic_stringIcNS_11char_traitsIcEENS_9allocatorIcEEEpLB8ue170006EPKc, symObjAddr: 0x1A1C, symBinAddr: 0x100010B00, symSize: 0x2C }
  - { offsetInCU: 0xD2ED, offset: 0x4C956, size: 0x8, addend: 0x0, symName: __ZNSt3__110unique_ptrI7__sFILEPFiPS1_EED1B8ue170006Ev, symObjAddr: 0x1A48, symBinAddr: 0x100010B2C, symSize: 0x2C }
  - { offsetInCU: 0xD315, offset: 0x4C97E, size: 0x8, addend: 0x0, symName: __ZNSt3__14pairINS_12basic_stringIcNS_11char_traitsIcEENS_9allocatorIcEEEES6_EC2B8ue170006IRA1_KcSB_LPv0EEEOT_OT0_, symObjAddr: 0x1AB0, symBinAddr: 0x100010B58, symSize: 0x70 }
  - { offsetInCU: 0xD372, offset: 0x4C9DB, size: 0x8, addend: 0x0, symName: __ZNSt3__14pairINS_12basic_stringIcNS_11char_traitsIcEENS_9allocatorIcEEEES6_ED2Ev, symObjAddr: 0x1B20, symBinAddr: 0x100010BC8, symSize: 0x38 }
  - { offsetInCU: 0xD39D, offset: 0x4CA06, size: 0x8, addend: 0x0, symName: __ZNKSt3__111__wrap_iterIPcE4baseB8ue170006Ev, symObjAddr: 0x1BA0, symBinAddr: 0x100010C48, symSize: 0x18 }
  - { offsetInCU: 0xD3C2, offset: 0x4CA2B, size: 0x8, addend: 0x0, symName: __ZN9StockData14DailyOpenCloseC2Ev, symObjAddr: 0x1BB8, symBinAddr: 0x100010C60, symSize: 0x3C }
  - { offsetInCU: 0xD3EA, offset: 0x4CA53, size: 0x8, addend: 0x0, symName: __ZN14PolygonRequestC2E18PolygonRequestTypej, symObjAddr: 0x1BF4, symBinAddr: 0x100010C9C, symSize: 0x184 }
  - { offsetInCU: 0xD42E, offset: 0x4CA97, size: 0x8, addend: 0x0, symName: __ZNSt3__112basic_stringIcNS_11char_traitsIcEENS_9allocatorIcEEEaSB8ue170006EPKc, symObjAddr: 0x1D78, symBinAddr: 0x100010E20, symSize: 0x2C }
  - { offsetInCU: 0xD462, offset: 0x4CACB, size: 0x8, addend: 0x0, symName: __ZN7Network7getDateEv, symObjAddr: 0x1DD8, symBinAddr: 0x100010E4C, symSize: 0x30 }
  - { offsetInCU: 0xD476, offset: 0x4CADF, size: 0x8, addend: 0x0, symName: __ZN14PolygonRequestD2Ev, symObjAddr: 0x2310, symBinAddr: 0x100010E7C, symSize: 0x44 }
  - { offsetInCU: 0xD4A6, offset: 0x4CB0F, size: 0x8, addend: 0x0, symName: __ZNSt3__16vectorINS_4pairINS_12basic_stringIcNS_11char_traitsIcEENS_9allocatorIcEEEES7_EENS5_IS8_EEEC2EmRKS8_, symObjAddr: 0x27F0, symBinAddr: 0x100010EC0, symSize: 0xDC }
  - { offsetInCU: 0xD508, offset: 0x4CB71, size: 0x8, addend: 0x0, symName: __ZNSt3__117__compressed_pairIPNS_4pairINS_12basic_stringIcNS_11char_traitsIcEENS_9allocatorIcEEEES7_EENS5_IS8_EEEC1B8ue170006IDnNS_18__default_init_tagEEEOT_OT0_, symObjAddr: 0x28CC, symBinAddr: 0x100010F9C, symSize: 0x3C }
  - { offsetInCU: 0xD55E, offset: 0x4CBC7, size: 0x8, addend: 0x0, symName: __ZNSt3__16vectorINS_4pairINS_12basic_stringIcNS_11char_traitsIcEENS_9allocatorIcEEEES7_EENS5_IS8_EEE16__destroy_vectorC1B8ue170006ERSA_, symObjAddr: 0x2948, symBinAddr: 0x100011018, symSize: 0x34 }
  - { offsetInCU: 0xD595, offset: 0x4CBFE, size: 0x8, addend: 0x0, symName: __ZNSt3__16vectorINS_4pairINS_12basic_stringIcNS_11char_traitsIcEENS_9allocatorIcEEEES7_EENS5_IS8_EEE11__vallocateB8ue170006Em, symObjAddr: 0x297C, symBinAddr: 0x10001104C, symSize: 0xB4 }
  - { offsetInCU: 0xD5D8, offset: 0x4CC41, size: 0x8, addend: 0x0, symName: __ZNSt3__16vectorINS_4pairINS_12basic_stringIcNS_11char_traitsIcEENS_9allocatorIcEEEES7_EENS5_IS8_EEE18__construct_at_endEmRKS8_, symObjAddr: 0x2A30, symBinAddr: 0x100011100, symSize: 0xD0 }
  - { offsetInCU: 0xD658, offset: 0x4CCC1, size: 0x8, addend: 0x0, symName: __ZNSt3__128__exception_guard_exceptionsINS_6vectorINS_4pairINS_12basic_stringIcNS_11char_traitsIcEENS_9allocatorIcEEEES8_EENS6_IS9_EEE16__destroy_vectorEE10__completeB8ue170006Ev, symObjAddr: 0x2B00, symBinAddr: 0x1000111D0, symSize: 0x1C }
  - { offsetInCU: 0xD67D, offset: 0x4CCE6, size: 0x8, addend: 0x0, symName: __ZNSt3__128__exception_guard_exceptionsINS_6vectorINS_4pairINS_12basic_stringIcNS_11char_traitsIcEENS_9allocatorIcEEEES8_EENS6_IS9_EEE16__destroy_vectorEED1B8ue170006Ev, symObjAddr: 0x2B1C, symBinAddr: 0x1000111EC, symSize: 0x2C }
  - { offsetInCU: 0xD6A5, offset: 0x4CD0E, size: 0x8, addend: 0x0, symName: __ZNSt3__117__compressed_pairIPNS_4pairINS_12basic_stringIcNS_11char_traitsIcEENS_9allocatorIcEEEES7_EENS5_IS8_EEEC2B8ue170006IDnNS_18__default_init_tagEEEOT_OT0_, symObjAddr: 0x2B48, symBinAddr: 0x100011218, symSize: 0x40 }
  - { offsetInCU: 0xD6FB, offset: 0x4CD64, size: 0x8, addend: 0x0, symName: __ZNSt3__122__compressed_pair_elemIPNS_4pairINS_12basic_stringIcNS_11char_traitsIcEENS_9allocatorIcEEEES7_EELi0ELb0EEC2B8ue170006IDnvEEOT_, symObjAddr: 0x2B88, symBinAddr: 0x100011258, symSize: 0x1C }
  - { offsetInCU: 0xD73C, offset: 0x4CDA5, size: 0x8, addend: 0x0, symName: __ZNSt3__122__compressed_pair_elemINS_9allocatorINS_4pairINS_12basic_stringIcNS_11char_traitsIcEENS1_IcEEEES7_EEEELi1ELb1EEC2B8ue170006ENS_18__default_init_tagE, symObjAddr: 0x2BA4, symBinAddr: 0x100011274, symSize: 0x2C }
  - { offsetInCU: 0xD76F, offset: 0x4CDD8, size: 0x8, addend: 0x0, symName: __ZNSt3__19allocatorINS_4pairINS_12basic_stringIcNS_11char_traitsIcEENS0_IcEEEES6_EEEC2B8ue170006Ev, symObjAddr: 0x2BD0, symBinAddr: 0x1000112A0, symSize: 0x2C }
  - { offsetInCU: 0xD797, offset: 0x4CE00, size: 0x8, addend: 0x0, symName: __ZNSt3__116__non_trivial_ifILb1ENS_9allocatorINS_4pairINS_12basic_stringIcNS_11char_traitsIcEENS1_IcEEEES7_EEEEEC2B8ue170006Ev, symObjAddr: 0x2BFC, symBinAddr: 0x1000112CC, symSize: 0x14 }
  - { offsetInCU: 0xD7C0, offset: 0x4CE29, size: 0x8, addend: 0x0, symName: __ZNSt3__128__exception_guard_exceptionsINS_6vectorINS_4pairINS_12basic_stringIcNS_11char_traitsIcEENS_9allocatorIcEEEES8_EENS6_IS9_EEE16__destroy_vectorEEC1B8ue170006ESC_, symObjAddr: 0x2C10, symBinAddr: 0x1000112E0, symSize: 0x34 }
  - { offsetInCU: 0xD7F6, offset: 0x4CE5F, size: 0x8, addend: 0x0, symName: __ZNSt3__128__exception_guard_exceptionsINS_6vectorINS_4pairINS_12basic_stringIcNS_11char_traitsIcEENS_9allocatorIcEEEES8_EENS6_IS9_EEE16__destroy_vectorEEC2B8ue170006ESC_, symObjAddr: 0x2C44, symBinAddr: 0x100011314, symSize: 0x24 }
  - { offsetInCU: 0xD82D, offset: 0x4CE96, size: 0x8, addend: 0x0, symName: __ZNSt3__16vectorINS_4pairINS_12basic_stringIcNS_11char_traitsIcEENS_9allocatorIcEEEES7_EENS5_IS8_EEE16__destroy_vectorC2B8ue170006ERSA_, symObjAddr: 0x2C68, symBinAddr: 0x100011338, symSize: 0x20 }
  - { offsetInCU: 0xD865, offset: 0x4CECE, size: 0x8, addend: 0x0, symName: __ZNKSt3__16vectorINS_4pairINS_12basic_stringIcNS_11char_traitsIcEENS_9allocatorIcEEEES7_EENS5_IS8_EEE8max_sizeEv, symObjAddr: 0x2C88, symBinAddr: 0x100011358, symSize: 0x60 }
  - { offsetInCU: 0xD88B, offset: 0x4CEF4, size: 0x8, addend: 0x0, symName: __ZNKSt3__16vectorINS_4pairINS_12basic_stringIcNS_11char_traitsIcEENS_9allocatorIcEEEES7_EENS5_IS8_EEE20__throw_length_errorB8ue170006Ev, symObjAddr: 0x2CE8, symBinAddr: 0x1000113B8, symSize: 0x1C }
  - { offsetInCU: 0xD8B0, offset: 0x4CF19, size: 0x8, addend: 0x0, symName: __ZNSt3__16vectorINS_4pairINS_12basic_stringIcNS_11char_traitsIcEENS_9allocatorIcEEEES7_EENS5_IS8_EEE7__allocB8ue170006Ev, symObjAddr: 0x2D44, symBinAddr: 0x100011414, symSize: 0x28 }
  - { offsetInCU: 0xD8D5, offset: 0x4CF3E, size: 0x8, addend: 0x0, symName: __ZNSt3__16vectorINS_4pairINS_12basic_stringIcNS_11char_traitsIcEENS_9allocatorIcEEEES7_EENS5_IS8_EEE9__end_capB8ue170006Ev, symObjAddr: 0x2D6C, symBinAddr: 0x10001143C, symSize: 0x28 }
  - { offsetInCU: 0xD8FA, offset: 0x4CF63, size: 0x8, addend: 0x0, symName: __ZNKSt3__16vectorINS_4pairINS_12basic_stringIcNS_11char_traitsIcEENS_9allocatorIcEEEES7_EENS5_IS8_EEE14__annotate_newB8ue170006Em, symObjAddr: 0x2D94, symBinAddr: 0x100011464, symSize: 0xC8 }
  - { offsetInCU: 0xD938, offset: 0x4CFA1, size: 0x8, addend: 0x0, symName: __ZNSt3__116allocator_traitsINS_9allocatorINS_4pairINS_12basic_stringIcNS_11char_traitsIcEENS1_IcEEEES7_EEEEE8max_sizeB8ue170006IS9_vEEmRKS9_, symObjAddr: 0x2E88, symBinAddr: 0x100011558, symSize: 0x24 }
  - { offsetInCU: 0xD966, offset: 0x4CFCF, size: 0x8, addend: 0x0, symName: __ZNKSt3__16vectorINS_4pairINS_12basic_stringIcNS_11char_traitsIcEENS_9allocatorIcEEEES7_EENS5_IS8_EEE7__allocB8ue170006Ev, symObjAddr: 0x2EAC, symBinAddr: 0x10001157C, symSize: 0x28 }
  - { offsetInCU: 0xD98B, offset: 0x4CFF4, size: 0x8, addend: 0x0, symName: __ZNKSt3__19allocatorINS_4pairINS_12basic_stringIcNS_11char_traitsIcEENS0_IcEEEES6_EEE8max_sizeB8ue170006Ev, symObjAddr: 0x2F70, symBinAddr: 0x1000115F8, symSize: 0x18 }
  - { offsetInCU: 0xD9B0, offset: 0x4D019, size: 0x8, addend: 0x0, symName: __ZNKSt3__117__compressed_pairIPNS_4pairINS_12basic_stringIcNS_11char_traitsIcEENS_9allocatorIcEEEES7_EENS5_IS8_EEE6secondB8ue170006Ev, symObjAddr: 0x2F88, symBinAddr: 0x100011610, symSize: 0x24 }
  - { offsetInCU: 0xD9D5, offset: 0x4D03E, size: 0x8, addend: 0x0, symName: __ZNKSt3__122__compressed_pair_elemINS_9allocatorINS_4pairINS_12basic_stringIcNS_11char_traitsIcEENS1_IcEEEES7_EEEELi1ELb1EE5__getB8ue170006Ev, symObjAddr: 0x2FAC, symBinAddr: 0x100011634, symSize: 0x14 }
  - { offsetInCU: 0xD9FA, offset: 0x4D063, size: 0x8, addend: 0x0, symName: __ZNSt3__19allocatorINS_4pairINS_12basic_stringIcNS_11char_traitsIcEENS0_IcEEEES6_EEE8allocateB8ue170006Em, symObjAddr: 0x30AC, symBinAddr: 0x100011648, symSize: 0x5C }
  - { offsetInCU: 0xDA2D, offset: 0x4D096, size: 0x8, addend: 0x0, symName: __ZNSt3__117__compressed_pairIPNS_4pairINS_12basic_stringIcNS_11char_traitsIcEENS_9allocatorIcEEEES7_EENS5_IS8_EEE6secondB8ue170006Ev, symObjAddr: 0x31EC, symBinAddr: 0x1000116A4, symSize: 0x24 }
  - { offsetInCU: 0xDA52, offset: 0x4D0BB, size: 0x8, addend: 0x0, symName: __ZNSt3__122__compressed_pair_elemINS_9allocatorINS_4pairINS_12basic_stringIcNS_11char_traitsIcEENS1_IcEEEES7_EEEELi1ELb1EE5__getB8ue170006Ev, symObjAddr: 0x3210, symBinAddr: 0x1000116C8, symSize: 0x14 }
  - { offsetInCU: 0xDA77, offset: 0x4D0E0, size: 0x8, addend: 0x0, symName: __ZNSt3__117__compressed_pairIPNS_4pairINS_12basic_stringIcNS_11char_traitsIcEENS_9allocatorIcEEEES7_EENS5_IS8_EEE5firstB8ue170006Ev, symObjAddr: 0x3224, symBinAddr: 0x1000116DC, symSize: 0x24 }
  - { offsetInCU: 0xDA9C, offset: 0x4D105, size: 0x8, addend: 0x0, symName: __ZNSt3__122__compressed_pair_elemIPNS_4pairINS_12basic_stringIcNS_11char_traitsIcEENS_9allocatorIcEEEES7_EELi0ELb0EE5__getB8ue170006Ev, symObjAddr: 0x3248, symBinAddr: 0x100011700, symSize: 0x14 }
  - { offsetInCU: 0xDAC1, offset: 0x4D12A, size: 0x8, addend: 0x0, symName: __ZNKSt3__16vectorINS_4pairINS_12basic_stringIcNS_11char_traitsIcEENS_9allocatorIcEEEES7_EENS5_IS8_EEE31__annotate_contiguous_containerB8ue170006EPKvSC_SC_SC_, symObjAddr: 0x325C, symBinAddr: 0x100011714, symSize: 0x20 }
  - { offsetInCU: 0xDB16, offset: 0x4D17F, size: 0x8, addend: 0x0, symName: __ZNKSt3__16vectorINS_4pairINS_12basic_stringIcNS_11char_traitsIcEENS_9allocatorIcEEEES7_EENS5_IS8_EEE4dataB8ue170006Ev, symObjAddr: 0x327C, symBinAddr: 0x100011734, symSize: 0x28 }
  - { offsetInCU: 0xDB3B, offset: 0x4D1A4, size: 0x8, addend: 0x0, symName: __ZNKSt3__16vectorINS_4pairINS_12basic_stringIcNS_11char_traitsIcEENS_9allocatorIcEEEES7_EENS5_IS8_EEE8capacityB8ue170006Ev, symObjAddr: 0x32A4, symBinAddr: 0x10001175C, symSize: 0x40 }
  - { offsetInCU: 0xDB60, offset: 0x4D1C9, size: 0x8, addend: 0x0, symName: __ZNKSt3__16vectorINS_4pairINS_12basic_stringIcNS_11char_traitsIcEENS_9allocatorIcEEEES7_EENS5_IS8_EEE9__end_capB8ue170006Ev, symObjAddr: 0x32F8, symBinAddr: 0x1000117B0, symSize: 0x28 }
  - { offsetInCU: 0xDB85, offset: 0x4D1EE, size: 0x8, addend: 0x0, symName: __ZNKSt3__117__compressed_pairIPNS_4pairINS_12basic_stringIcNS_11char_traitsIcEENS_9allocatorIcEEEES7_EENS5_IS8_EEE5firstB8ue170006Ev, symObjAddr: 0x3320, symBinAddr: 0x1000117D8, symSize: 0x24 }
  - { offsetInCU: 0xDBAA, offset: 0x4D213, size: 0x8, addend: 0x0, symName: __ZNKSt3__122__compressed_pair_elemIPNS_4pairINS_12basic_stringIcNS_11char_traitsIcEENS_9allocatorIcEEEES7_EELi0ELb0EE5__getB8ue170006Ev, symObjAddr: 0x3344, symBinAddr: 0x1000117FC, symSize: 0x14 }
  - { offsetInCU: 0xDBE8, offset: 0x4D251, size: 0x8, addend: 0x0, symName: __ZNSt3__16vectorINS_4pairINS_12basic_stringIcNS_11char_traitsIcEENS_9allocatorIcEEEES7_EENS5_IS8_EEE21_ConstructTransactionC1B8ue170006ERSA_m, symObjAddr: 0x3358, symBinAddr: 0x100011810, symSize: 0x3C }
  - { offsetInCU: 0xDC2E, offset: 0x4D297, size: 0x8, addend: 0x0, symName: __ZNSt3__116allocator_traitsINS_9allocatorINS_4pairINS_12basic_stringIcNS_11char_traitsIcEENS1_IcEEEES7_EEEEE9constructB8ue170006IS8_JRKS8_EvEEvRS9_PT_DpOT0_, symObjAddr: 0x3394, symBinAddr: 0x10001184C, symSize: 0x34 }
  - { offsetInCU: 0xDC87, offset: 0x4D2F0, size: 0x8, addend: 0x0, symName: __ZNSt3__16vectorINS_4pairINS_12basic_stringIcNS_11char_traitsIcEENS_9allocatorIcEEEES7_EENS5_IS8_EEE21_ConstructTransactionD1B8ue170006Ev, symObjAddr: 0x33C8, symBinAddr: 0x100011880, symSize: 0x2C }
  - { offsetInCU: 0xDCAF, offset: 0x4D318, size: 0x8, addend: 0x0, symName: __ZNSt3__16vectorINS_4pairINS_12basic_stringIcNS_11char_traitsIcEENS_9allocatorIcEEEES7_EENS5_IS8_EEE21_ConstructTransactionC2B8ue170006ERSA_m, symObjAddr: 0x33F4, symBinAddr: 0x1000118AC, symSize: 0x4C }
  - { offsetInCU: 0xDCF6, offset: 0x4D35F, size: 0x8, addend: 0x0, symName: __ZNSt3__19allocatorINS_4pairINS_12basic_stringIcNS_11char_traitsIcEENS0_IcEEEES6_EEE9constructB8ue170006IS7_JRKS7_EEEvPT_DpOT0_, symObjAddr: 0x3440, symBinAddr: 0x1000118F8, symSize: 0x30 }
  - { offsetInCU: 0xDD4D, offset: 0x4D3B6, size: 0x8, addend: 0x0, symName: __ZNSt3__14pairINS_12basic_stringIcNS_11char_traitsIcEENS_9allocatorIcEEEES6_EC1B8ue170006ERKS7_, symObjAddr: 0x3470, symBinAddr: 0x100011928, symSize: 0x34 }
  - { offsetInCU: 0xDD80, offset: 0x4D3E9, size: 0x8, addend: 0x0, symName: __ZNSt3__14pairINS_12basic_stringIcNS_11char_traitsIcEENS_9allocatorIcEEEES6_EC2B8ue170006ERKS7_, symObjAddr: 0x34A4, symBinAddr: 0x10001195C, symSize: 0x70 }
  - { offsetInCU: 0xDDB3, offset: 0x4D41C, size: 0x8, addend: 0x0, symName: __ZNSt3__16vectorINS_4pairINS_12basic_stringIcNS_11char_traitsIcEENS_9allocatorIcEEEES7_EENS5_IS8_EEE21_ConstructTransactionD2B8ue170006Ev, symObjAddr: 0x3514, symBinAddr: 0x1000119CC, symSize: 0x20 }
  - { offsetInCU: 0xDDDC, offset: 0x4D445, size: 0x8, addend: 0x0, symName: __ZNSt3__128__exception_guard_exceptionsINS_6vectorINS_4pairINS_12basic_stringIcNS_11char_traitsIcEENS_9allocatorIcEEEES8_EENS6_IS9_EEE16__destroy_vectorEED2B8ue170006Ev, symObjAddr: 0x3534, symBinAddr: 0x1000119EC, symSize: 0x50 }
  - { offsetInCU: 0xDE04, offset: 0x4D46D, size: 0x8, addend: 0x0, symName: __ZNSt3__16vectorINS_4pairINS_12basic_stringIcNS_11char_traitsIcEENS_9allocatorIcEEEES7_EENS5_IS8_EEE16__destroy_vectorclB8ue170006Ev, symObjAddr: 0x3584, symBinAddr: 0x100011A3C, symSize: 0x90 }
  - { offsetInCU: 0xDE29, offset: 0x4D492, size: 0x8, addend: 0x0, symName: __ZNSt3__16vectorINS_4pairINS_12basic_stringIcNS_11char_traitsIcEENS_9allocatorIcEEEES7_EENS5_IS8_EEE7__clearB8ue170006Ev, symObjAddr: 0x3614, symBinAddr: 0x100011ACC, symSize: 0x28 }
  - { offsetInCU: 0xDE4E, offset: 0x4D4B7, size: 0x8, addend: 0x0, symName: __ZNKSt3__16vectorINS_4pairINS_12basic_stringIcNS_11char_traitsIcEENS_9allocatorIcEEEES7_EENS5_IS8_EEE17__annotate_deleteB8ue170006Ev, symObjAddr: 0x363C, symBinAddr: 0x100011AF4, symSize: 0xD4 }
  - { offsetInCU: 0xDE73, offset: 0x4D4DC, size: 0x8, addend: 0x0, symName: __ZNSt3__116allocator_traitsINS_9allocatorINS_4pairINS_12basic_stringIcNS_11char_traitsIcEENS1_IcEEEES7_EEEEE10deallocateB8ue170006ERS9_PS8_m, symObjAddr: 0x3710, symBinAddr: 0x100011BC8, symSize: 0x34 }
  - { offsetInCU: 0xDEB5, offset: 0x4D51E, size: 0x8, addend: 0x0, symName: __ZNSt3__16vectorINS_4pairINS_12basic_stringIcNS_11char_traitsIcEENS_9allocatorIcEEEES7_EENS5_IS8_EEE22__base_destruct_at_endB8ue170006EPS8_, symObjAddr: 0x3744, symBinAddr: 0x100011BFC, symSize: 0x8C }
  - { offsetInCU: 0xDEF8, offset: 0x4D561, size: 0x8, addend: 0x0, symName: __ZNSt3__116allocator_traitsINS_9allocatorINS_4pairINS_12basic_stringIcNS_11char_traitsIcEENS1_IcEEEES7_EEEEE7destroyB8ue170006IS8_vEEvRS9_PT_, symObjAddr: 0x37D0, symBinAddr: 0x100011C88, symSize: 0x2C }
  - { offsetInCU: 0xDF35, offset: 0x4D59E, size: 0x8, addend: 0x0, symName: __ZNSt3__19allocatorINS_4pairINS_12basic_stringIcNS_11char_traitsIcEENS0_IcEEEES6_EEE7destroyB8ue170006EPS7_, symObjAddr: 0x37FC, symBinAddr: 0x100011CB4, symSize: 0x28 }
  - { offsetInCU: 0xDF68, offset: 0x4D5D1, size: 0x8, addend: 0x0, symName: __ZNKSt3__16vectorINS_4pairINS_12basic_stringIcNS_11char_traitsIcEENS_9allocatorIcEEEES7_EENS5_IS8_EEE4sizeB8ue170006Ev, symObjAddr: 0x3824, symBinAddr: 0x100011CDC, symSize: 0x28 }
  - { offsetInCU: 0xDF8D, offset: 0x4D5F6, size: 0x8, addend: 0x0, symName: __ZNSt3__19allocatorINS_4pairINS_12basic_stringIcNS_11char_traitsIcEENS0_IcEEEES6_EEE10deallocateB8ue170006EPS7_m, symObjAddr: 0x384C, symBinAddr: 0x100011D04, symSize: 0x44 }
  - { offsetInCU: 0xDFCE, offset: 0x4D637, size: 0x8, addend: 0x0, symName: __ZNSt3__16vectorINS_4pairINS_12basic_stringIcNS_11char_traitsIcEENS_9allocatorIcEEEES7_EENS5_IS8_EEED2B8ue170006Ev, symObjAddr: 0x3890, symBinAddr: 0x100011D48, symSize: 0x40 }
  - { offsetInCU: 0xDFF6, offset: 0x4D65F, size: 0x8, addend: 0x0, symName: __ZNSt3__112basic_stringIcNS_11char_traitsIcEENS_9allocatorIcEEE15__make_iteratorB8ue170006EPc, symObjAddr: 0x38D0, symBinAddr: 0x100011D88, symSize: 0x30 }
  - { offsetInCU: 0xE02A, offset: 0x4D693, size: 0x8, addend: 0x0, symName: __ZNSt3__111__wrap_iterIPcEC1B8ue170006ES1_, symObjAddr: 0x3954, symBinAddr: 0x100011DB8, symSize: 0x34 }
  - { offsetInCU: 0xE060, offset: 0x4D6C9, size: 0x8, addend: 0x0, symName: __ZNSt3__111__wrap_iterIPcEC2B8ue170006ES1_, symObjAddr: 0x3988, symBinAddr: 0x100011DEC, symSize: 0x20 }
  - { offsetInCU: 0xE097, offset: 0x4D700, size: 0x8, addend: 0x0, symName: __ZNSt3__16vectorINS_4pairINS_12basic_stringIcNS_11char_traitsIcEENS_9allocatorIcEEEES7_EENS5_IS8_EEE22__construct_one_at_endB8ue170006IJS8_EEEvDpOT_, symObjAddr: 0x39A8, symBinAddr: 0x100011E0C, symSize: 0x90 }
  - { offsetInCU: 0xE0E7, offset: 0x4D750, size: 0x8, addend: 0x0, symName: __ZNSt3__16vectorINS_4pairINS_12basic_stringIcNS_11char_traitsIcEENS_9allocatorIcEEEES7_EENS5_IS8_EEE21__push_back_slow_pathIS8_EEvOT_, symObjAddr: 0x3A38, symBinAddr: 0x100011E9C, symSize: 0xD8 }
  - { offsetInCU: 0xE143, offset: 0x4D7AC, size: 0x8, addend: 0x0, symName: __ZNSt3__116allocator_traitsINS_9allocatorINS_4pairINS_12basic_stringIcNS_11char_traitsIcEENS1_IcEEEES7_EEEEE9constructB8ue170006IS8_JS8_EvEEvRS9_PT_DpOT0_, symObjAddr: 0x3B10, symBinAddr: 0x100011F74, symSize: 0x34 }
  - { offsetInCU: 0xE19C, offset: 0x4D805, size: 0x8, addend: 0x0, symName: __ZNSt3__19allocatorINS_4pairINS_12basic_stringIcNS_11char_traitsIcEENS0_IcEEEES6_EEE9constructB8ue170006IS7_JS7_EEEvPT_DpOT0_, symObjAddr: 0x3B44, symBinAddr: 0x100011FA8, symSize: 0x30 }
  - { offsetInCU: 0xE1F3, offset: 0x4D85C, size: 0x8, addend: 0x0, symName: __ZNSt3__14pairINS_12basic_stringIcNS_11char_traitsIcEENS_9allocatorIcEEEES6_EC1B8ue170006EOS7_, symObjAddr: 0x3B74, symBinAddr: 0x100011FD8, symSize: 0x34 }
  - { offsetInCU: 0xE226, offset: 0x4D88F, size: 0x8, addend: 0x0, symName: __ZNSt3__14pairINS_12basic_stringIcNS_11char_traitsIcEENS_9allocatorIcEEEES6_EC2B8ue170006EOS7_, symObjAddr: 0x3BA8, symBinAddr: 0x10001200C, symSize: 0x48 }
  - { offsetInCU: 0xE259, offset: 0x4D8C2, size: 0x8, addend: 0x0, symName: __ZNKSt3__16vectorINS_4pairINS_12basic_stringIcNS_11char_traitsIcEENS_9allocatorIcEEEES7_EENS5_IS8_EEE11__recommendB8ue170006Em, symObjAddr: 0x3BF0, symBinAddr: 0x100012054, symSize: 0xB4 }
  - { offsetInCU: 0xE2AC, offset: 0x4D915, size: 0x8, addend: 0x0, symName: __ZNSt3__114__split_bufferINS_4pairINS_12basic_stringIcNS_11char_traitsIcEENS_9allocatorIcEEEES7_EERNS5_IS8_EEEC1EmmSA_, symObjAddr: 0x3CA4, symBinAddr: 0x100012108, symSize: 0x44 }
  - { offsetInCU: 0xE300, offset: 0x4D969, size: 0x8, addend: 0x0, symName: __ZNSt3__114__split_bufferINS_4pairINS_12basic_stringIcNS_11char_traitsIcEENS_9allocatorIcEEEES7_EERNS5_IS8_EEED1Ev, symObjAddr: 0x3DF8, symBinAddr: 0x10001225C, symSize: 0x2C }
  - { offsetInCU: 0xE32A, offset: 0x4D993, size: 0x8, addend: 0x0, symName: __ZNSt3__114__split_bufferINS_4pairINS_12basic_stringIcNS_11char_traitsIcEENS_9allocatorIcEEEES7_EERNS5_IS8_EEEC2EmmSA_, symObjAddr: 0x3EA4, symBinAddr: 0x100012288, symSize: 0xE0 }
  - { offsetInCU: 0xE39C, offset: 0x4DA05, size: 0x8, addend: 0x0, symName: __ZNSt3__117__compressed_pairIPNS_4pairINS_12basic_stringIcNS_11char_traitsIcEENS_9allocatorIcEEEES7_EERNS5_IS8_EEEC1B8ue170006IDnSB_EEOT_OT0_, symObjAddr: 0x3F84, symBinAddr: 0x100012368, symSize: 0x3C }
  - { offsetInCU: 0xE3F2, offset: 0x4DA5B, size: 0x8, addend: 0x0, symName: __ZNSt3__114__split_bufferINS_4pairINS_12basic_stringIcNS_11char_traitsIcEENS_9allocatorIcEEEES7_EERNS5_IS8_EEE7__allocB8ue170006Ev, symObjAddr: 0x3FC0, symBinAddr: 0x1000123A4, symSize: 0x28 }
  - { offsetInCU: 0xE417, offset: 0x4DA80, size: 0x8, addend: 0x0, symName: __ZNSt3__114__split_bufferINS_4pairINS_12basic_stringIcNS_11char_traitsIcEENS_9allocatorIcEEEES7_EERNS5_IS8_EEE9__end_capB8ue170006Ev, symObjAddr: 0x3FE8, symBinAddr: 0x1000123CC, symSize: 0x28 }
  - { offsetInCU: 0xE43C, offset: 0x4DAA5, size: 0x8, addend: 0x0, symName: __ZNSt3__117__compressed_pairIPNS_4pairINS_12basic_stringIcNS_11char_traitsIcEENS_9allocatorIcEEEES7_EERNS5_IS8_EEEC2B8ue170006IDnSB_EEOT_OT0_, symObjAddr: 0x4010, symBinAddr: 0x1000123F4, symSize: 0x48 }
  - { offsetInCU: 0xE492, offset: 0x4DAFB, size: 0x8, addend: 0x0, symName: __ZNSt3__122__compressed_pair_elemIRNS_9allocatorINS_4pairINS_12basic_stringIcNS_11char_traitsIcEENS1_IcEEEES7_EEEELi1ELb0EEC2B8ue170006ISA_vEEOT_, symObjAddr: 0x4058, symBinAddr: 0x10001243C, symSize: 0x20 }
  - { offsetInCU: 0xE4D3, offset: 0x4DB3C, size: 0x8, addend: 0x0, symName: __ZNSt3__117__compressed_pairIPNS_4pairINS_12basic_stringIcNS_11char_traitsIcEENS_9allocatorIcEEEES7_EERNS5_IS8_EEE6secondB8ue170006Ev, symObjAddr: 0x4078, symBinAddr: 0x10001245C, symSize: 0x28 }
  - { offsetInCU: 0xE4F8, offset: 0x4DB61, size: 0x8, addend: 0x0, symName: __ZNSt3__122__compressed_pair_elemIRNS_9allocatorINS_4pairINS_12basic_stringIcNS_11char_traitsIcEENS1_IcEEEES7_EEEELi1ELb0EE5__getB8ue170006Ev, symObjAddr: 0x40A0, symBinAddr: 0x100012484, symSize: 0x18 }
  - { offsetInCU: 0xE51D, offset: 0x4DB86, size: 0x8, addend: 0x0, symName: __ZNSt3__117__compressed_pairIPNS_4pairINS_12basic_stringIcNS_11char_traitsIcEENS_9allocatorIcEEEES7_EERNS5_IS8_EEE5firstB8ue170006Ev, symObjAddr: 0x40B8, symBinAddr: 0x10001249C, symSize: 0x24 }
  - { offsetInCU: 0xE542, offset: 0x4DBAB, size: 0x8, addend: 0x0, symName: __ZNSt3__116reverse_iteratorIPNS_4pairINS_12basic_stringIcNS_11char_traitsIcEENS_9allocatorIcEEEES7_EEEC1B8ue170006ES9_, symObjAddr: 0x4208, symBinAddr: 0x1000125EC, symSize: 0x34 }
  - { offsetInCU: 0xE578, offset: 0x4DBE1, size: 0x8, addend: 0x0, symName: __ZNKSt3__116reverse_iteratorIPNS_4pairINS_12basic_stringIcNS_11char_traitsIcEENS_9allocatorIcEEEES7_EEE4baseB8ue170006Ev, symObjAddr: 0x423C, symBinAddr: 0x100012620, symSize: 0x18 }
  - { offsetInCU: 0xE59D, offset: 0x4DC06, size: 0x8, addend: 0x0, symName: __ZNSt3__129_AllocatorDestroyRangeReverseINS_9allocatorINS_4pairINS_12basic_stringIcNS_11char_traitsIcEENS1_IcEEEES7_EEEENS_16reverse_iteratorIPS8_EEEC1B8ue170006ERS9_RSC_SF_, symObjAddr: 0x42DC, symBinAddr: 0x1000126C0, symSize: 0x44 }
  - { offsetInCU: 0xE5F2, offset: 0x4DC5B, size: 0x8, addend: 0x0, symName: __ZNKSt3__116reverse_iteratorIPNS_4pairINS_12basic_stringIcNS_11char_traitsIcEENS_9allocatorIcEEEES7_EEEdeB8ue170006Ev, symObjAddr: 0x438C, symBinAddr: 0x100012770, symSize: 0x28 }
  - { offsetInCU: 0xE625, offset: 0x4DC8E, size: 0x8, addend: 0x0, symName: __ZNSt3__116reverse_iteratorIPNS_4pairINS_12basic_stringIcNS_11char_traitsIcEENS_9allocatorIcEEEES7_EEEppB8ue170006Ev, symObjAddr: 0x43B4, symBinAddr: 0x100012798, symSize: 0x20 }
  - { offsetInCU: 0xE64A, offset: 0x4DCB3, size: 0x8, addend: 0x0, symName: __ZNSt3__128__exception_guard_exceptionsINS_29_AllocatorDestroyRangeReverseINS_9allocatorINS_4pairINS_12basic_stringIcNS_11char_traitsIcEENS2_IcEEEES8_EEEENS_16reverse_iteratorIPS9_EEEEE10__completeB8ue170006Ev, symObjAddr: 0x43D4, symBinAddr: 0x1000127B8, symSize: 0x1C }
  - { offsetInCU: 0xE66F, offset: 0x4DCD8, size: 0x8, addend: 0x0, symName: __ZNSt3__128__exception_guard_exceptionsINS_29_AllocatorDestroyRangeReverseINS_9allocatorINS_4pairINS_12basic_stringIcNS_11char_traitsIcEENS2_IcEEEES8_EEEENS_16reverse_iteratorIPS9_EEEEED1B8ue170006Ev, symObjAddr: 0x43F0, symBinAddr: 0x1000127D4, symSize: 0x2C }
  - { offsetInCU: 0xE697, offset: 0x4DD00, size: 0x8, addend: 0x0, symName: __ZNSt3__128__exception_guard_exceptionsINS_29_AllocatorDestroyRangeReverseINS_9allocatorINS_4pairINS_12basic_stringIcNS_11char_traitsIcEENS2_IcEEEES8_EEEENS_16reverse_iteratorIPS9_EEEEEC1B8ue170006ESE_, symObjAddr: 0x441C, symBinAddr: 0x100012800, symSize: 0x34 }
  - { offsetInCU: 0xE6CE, offset: 0x4DD37, size: 0x8, addend: 0x0, symName: __ZNSt3__128__exception_guard_exceptionsINS_29_AllocatorDestroyRangeReverseINS_9allocatorINS_4pairINS_12basic_stringIcNS_11char_traitsIcEENS2_IcEEEES8_EEEENS_16reverse_iteratorIPS9_EEEEEC2B8ue170006ESE_, symObjAddr: 0x4450, symBinAddr: 0x100012834, symSize: 0x30 }
  - { offsetInCU: 0xE706, offset: 0x4DD6F, size: 0x8, addend: 0x0, symName: __ZNSt3__129_AllocatorDestroyRangeReverseINS_9allocatorINS_4pairINS_12basic_stringIcNS_11char_traitsIcEENS1_IcEEEES7_EEEENS_16reverse_iteratorIPS8_EEEC2B8ue170006ERS9_RSC_SF_, symObjAddr: 0x4480, symBinAddr: 0x100012864, symSize: 0x38 }
  - { offsetInCU: 0xE761, offset: 0x4DDCA, size: 0x8, addend: 0x0, symName: __ZNSt3__119__to_address_helperINS_16reverse_iteratorIPNS_4pairINS_12basic_stringIcNS_11char_traitsIcEENS_9allocatorIcEEEES8_EEEEvE6__callB8ue170006ERKSB_, symObjAddr: 0x44B8, symBinAddr: 0x10001289C, symSize: 0x38 }
  - { offsetInCU: 0xE784, offset: 0x4DDED, size: 0x8, addend: 0x0, symName: __ZNKSt3__116reverse_iteratorIPNS_4pairINS_12basic_stringIcNS_11char_traitsIcEENS_9allocatorIcEEEES7_EEEptB8ue170006Ev, symObjAddr: 0x44F0, symBinAddr: 0x1000128D4, symSize: 0x24 }
  - { offsetInCU: 0xE7A9, offset: 0x4DE12, size: 0x8, addend: 0x0, symName: __ZNSt3__128__exception_guard_exceptionsINS_29_AllocatorDestroyRangeReverseINS_9allocatorINS_4pairINS_12basic_stringIcNS_11char_traitsIcEENS2_IcEEEES8_EEEENS_16reverse_iteratorIPS9_EEEEED2B8ue170006Ev, symObjAddr: 0x4514, symBinAddr: 0x1000128F8, symSize: 0x50 }
  - { offsetInCU: 0xE7D1, offset: 0x4DE3A, size: 0x8, addend: 0x0, symName: __ZNKSt3__129_AllocatorDestroyRangeReverseINS_9allocatorINS_4pairINS_12basic_stringIcNS_11char_traitsIcEENS1_IcEEEES7_EEEENS_16reverse_iteratorIPS8_EEEclB8ue170006Ev, symObjAddr: 0x4564, symBinAddr: 0x100012948, symSize: 0xB4 }
  - { offsetInCU: 0xE7F7, offset: 0x4DE60, size: 0x8, addend: 0x0, symName: __ZNSt3__116reverse_iteratorINS0_IPNS_4pairINS_12basic_stringIcNS_11char_traitsIcEENS_9allocatorIcEEEES7_EEEEEC1B8ue170006ESA_, symObjAddr: 0x4688, symBinAddr: 0x100012A6C, symSize: 0x3C }
  - { offsetInCU: 0xE82D, offset: 0x4DE96, size: 0x8, addend: 0x0, symName: __ZNSt3__116reverse_iteratorINS0_IPNS_4pairINS_12basic_stringIcNS_11char_traitsIcEENS_9allocatorIcEEEES7_EEEEEppB8ue170006Ev, symObjAddr: 0x4748, symBinAddr: 0x100012B2C, symSize: 0x30 }
  - { offsetInCU: 0xE852, offset: 0x4DEBB, size: 0x8, addend: 0x0, symName: __ZNKSt3__116reverse_iteratorINS0_IPNS_4pairINS_12basic_stringIcNS_11char_traitsIcEENS_9allocatorIcEEEES7_EEEEE4baseB8ue170006Ev, symObjAddr: 0x4778, symBinAddr: 0x100012B5C, symSize: 0x24 }
  - { offsetInCU: 0xE87C, offset: 0x4DEE5, size: 0x8, addend: 0x0, symName: __ZNSt3__119__to_address_helperINS_16reverse_iteratorINS1_IPNS_4pairINS_12basic_stringIcNS_11char_traitsIcEENS_9allocatorIcEEEES8_EEEEEEvE6__callB8ue170006ERKSC_, symObjAddr: 0x479C, symBinAddr: 0x100012B80, symSize: 0x38 }
  - { offsetInCU: 0xE89F, offset: 0x4DF08, size: 0x8, addend: 0x0, symName: __ZNKSt3__116reverse_iteratorINS0_IPNS_4pairINS_12basic_stringIcNS_11char_traitsIcEENS_9allocatorIcEEEES7_EEEEEptB8ue170006Ev, symObjAddr: 0x47D4, symBinAddr: 0x100012BB8, symSize: 0x24 }
  - { offsetInCU: 0xE8C4, offset: 0x4DF2D, size: 0x8, addend: 0x0, symName: __ZNKSt3__116reverse_iteratorINS0_IPNS_4pairINS_12basic_stringIcNS_11char_traitsIcEENS_9allocatorIcEEEES7_EEEEEdeB8ue170006Ev, symObjAddr: 0x47F8, symBinAddr: 0x100012BDC, symSize: 0x34 }
  - { offsetInCU: 0xE8F7, offset: 0x4DF60, size: 0x8, addend: 0x0, symName: __ZNSt3__116reverse_iteratorIPNS_4pairINS_12basic_stringIcNS_11char_traitsIcEENS_9allocatorIcEEEES7_EEEmmB8ue170006Ev, symObjAddr: 0x482C, symBinAddr: 0x100012C10, symSize: 0x20 }
  - { offsetInCU: 0xE91C, offset: 0x4DF85, size: 0x8, addend: 0x0, symName: __ZNSt3__116reverse_iteratorINS0_IPNS_4pairINS_12basic_stringIcNS_11char_traitsIcEENS_9allocatorIcEEEES7_EEEEEC2B8ue170006ESA_, symObjAddr: 0x484C, symBinAddr: 0x100012C30, symSize: 0x2C }
  - { offsetInCU: 0xE953, offset: 0x4DFBC, size: 0x8, addend: 0x0, symName: __ZNSt3__116reverse_iteratorIPNS_4pairINS_12basic_stringIcNS_11char_traitsIcEENS_9allocatorIcEEEES7_EEEC2B8ue170006ES9_, symObjAddr: 0x4878, symBinAddr: 0x100012C5C, symSize: 0x28 }
  - { offsetInCU: 0xE98A, offset: 0x4DFF3, size: 0x8, addend: 0x0, symName: __ZNSt3__114__split_bufferINS_4pairINS_12basic_stringIcNS_11char_traitsIcEENS_9allocatorIcEEEES7_EERNS5_IS8_EEED2Ev, symObjAddr: 0x48A0, symBinAddr: 0x100012C84, symSize: 0x8C }
  - { offsetInCU: 0xE9B4, offset: 0x4E01D, size: 0x8, addend: 0x0, symName: __ZNSt3__114__split_bufferINS_4pairINS_12basic_stringIcNS_11char_traitsIcEENS_9allocatorIcEEEES7_EERNS5_IS8_EEE5clearB8ue170006Ev, symObjAddr: 0x492C, symBinAddr: 0x100012D10, symSize: 0x28 }
  - { offsetInCU: 0xE9D9, offset: 0x4E042, size: 0x8, addend: 0x0, symName: __ZNKSt3__114__split_bufferINS_4pairINS_12basic_stringIcNS_11char_traitsIcEENS_9allocatorIcEEEES7_EERNS5_IS8_EEE8capacityB8ue170006Ev, symObjAddr: 0x4954, symBinAddr: 0x100012D38, symSize: 0x40 }
  - { offsetInCU: 0xE9FE, offset: 0x4E067, size: 0x8, addend: 0x0, symName: __ZNSt3__114__split_bufferINS_4pairINS_12basic_stringIcNS_11char_traitsIcEENS_9allocatorIcEEEES7_EERNS5_IS8_EEE17__destruct_at_endB8ue170006EPS8_, symObjAddr: 0x4994, symBinAddr: 0x100012D78, symSize: 0x2C }
  - { offsetInCU: 0xEA31, offset: 0x4E09A, size: 0x8, addend: 0x0, symName: __ZNSt3__114__split_bufferINS_4pairINS_12basic_stringIcNS_11char_traitsIcEENS_9allocatorIcEEEES7_EERNS5_IS8_EEE17__destruct_at_endB8ue170006EPS8_NS_17integral_constantIbLb0EEE, symObjAddr: 0x49C0, symBinAddr: 0x100012DA4, symSize: 0x80 }
  - { offsetInCU: 0xEA70, offset: 0x4E0D9, size: 0x8, addend: 0x0, symName: __ZNKSt3__114__split_bufferINS_4pairINS_12basic_stringIcNS_11char_traitsIcEENS_9allocatorIcEEEES7_EERNS5_IS8_EEE9__end_capB8ue170006Ev, symObjAddr: 0x4A40, symBinAddr: 0x100012E24, symSize: 0x28 }
  - { offsetInCU: 0xEA95, offset: 0x4E0FE, size: 0x8, addend: 0x0, symName: __ZNKSt3__117__compressed_pairIPNS_4pairINS_12basic_stringIcNS_11char_traitsIcEENS_9allocatorIcEEEES7_EERNS5_IS8_EEE5firstB8ue170006Ev, symObjAddr: 0x4A68, symBinAddr: 0x100012E4C, symSize: 0x24 }
  - { offsetInCU: 0xEABA, offset: 0x4E123, size: 0x8, addend: 0x0, symName: __ZNSt3__16vectorINS_4pairINS_12basic_stringIcNS_11char_traitsIcEENS_9allocatorIcEEEES7_EENS5_IS8_EEE11__make_iterB8ue170006EPS8_, symObjAddr: 0x4A8C, symBinAddr: 0x100012E70, symSize: 0x30 }
  - { offsetInCU: 0xEAEE, offset: 0x4E157, size: 0x8, addend: 0x0, symName: __ZNSt3__111__wrap_iterIPNS_4pairINS_12basic_stringIcNS_11char_traitsIcEENS_9allocatorIcEEEES7_EEEC1B8ue170006ES9_, symObjAddr: 0x4ABC, symBinAddr: 0x100012EA0, symSize: 0x34 }
  - { offsetInCU: 0xEB24, offset: 0x4E18D, size: 0x8, addend: 0x0, symName: __ZNSt3__111__wrap_iterIPNS_4pairINS_12basic_stringIcNS_11char_traitsIcEENS_9allocatorIcEEEES7_EEEC2B8ue170006ES9_, symObjAddr: 0x4AF0, symBinAddr: 0x100012ED4, symSize: 0x20 }
  - { offsetInCU: 0xEB5B, offset: 0x4E1C4, size: 0x8, addend: 0x0, symName: __ZNSt3__113unordered_mapINS_12basic_stringIcNS_11char_traitsIcEENS_9allocatorIcEEEES6_NS_4hashIS6_EENS_8equal_toIS6_EENS4_INS_4pairIKS6_S6_EEEEEC2INS_11__wrap_iterIPNSB_IS6_S6_EEEEEET_SL_, symObjAddr: 0x4B10, symBinAddr: 0x100012EF4, symSize: 0x7C }
  - { offsetInCU: 0xEBAC, offset: 0x4E215, size: 0x8, addend: 0x0, symName: __ZNSt3__112__hash_tableINS_17__hash_value_typeINS_12basic_stringIcNS_11char_traitsIcEENS_9allocatorIcEEEES7_EENS_22__unordered_map_hasherIS7_S8_NS_4hashIS7_EENS_8equal_toIS7_EELb1EEENS_21__unordered_map_equalIS7_S8_SD_SB_Lb1EEENS5_IS8_EEEC1Ev, symObjAddr: 0x4B8C, symBinAddr: 0x100012F70, symSize: 0x2C }
  - { offsetInCU: 0xEBD6, offset: 0x4E23F, size: 0x8, addend: 0x0, symName: __ZNSt3__113unordered_mapINS_12basic_stringIcNS_11char_traitsIcEENS_9allocatorIcEEEES6_NS_4hashIS6_EENS_8equal_toIS6_EENS4_INS_4pairIKS6_S6_EEEEE6insertINS_11__wrap_iterIPNSB_IS6_S6_EEEEEEvT_SL_, symObjAddr: 0x4BB8, symBinAddr: 0x100012F9C, symSize: 0x70 }
  - { offsetInCU: 0xEC23, offset: 0x4E28C, size: 0x8, addend: 0x0, symName: __ZNSt3__112__hash_tableINS_17__hash_value_typeINS_12basic_stringIcNS_11char_traitsIcEENS_9allocatorIcEEEES7_EENS_22__unordered_map_hasherIS7_S8_NS_4hashIS7_EENS_8equal_toIS7_EELb1EEENS_21__unordered_map_equalIS7_S8_SD_SB_Lb1EEENS5_IS8_EEED1Ev, symObjAddr: 0x4C28, symBinAddr: 0x10001300C, symSize: 0x2C }
  - { offsetInCU: 0xEC4D, offset: 0x4E2B6, size: 0x8, addend: 0x0, symName: __ZNSt3__112__hash_tableINS_17__hash_value_typeINS_12basic_stringIcNS_11char_traitsIcEENS_9allocatorIcEEEES7_EENS_22__unordered_map_hasherIS7_S8_NS_4hashIS7_EENS_8equal_toIS7_EELb1EEENS_21__unordered_map_equalIS7_S8_SD_SB_Lb1EEENS5_IS8_EEEC2Ev, symObjAddr: 0x4C54, symBinAddr: 0x100013038, symSize: 0x7C }
  - { offsetInCU: 0xEC77, offset: 0x4E2E0, size: 0x8, addend: 0x0, symName: __ZNSt3__110unique_ptrIA_PNS_16__hash_node_baseIPNS_11__hash_nodeINS_17__hash_value_typeINS_12basic_stringIcNS_11char_traitsIcEENS_9allocatorIcEEEES9_EEPvEEEENS_25__bucket_list_deallocatorINS7_ISF_EEEEEC1B8ue170006ILb1EvEEv, symObjAddr: 0x4CD0, symBinAddr: 0x1000130B4, symSize: 0x2C }
  - { offsetInCU: 0xECAA, offset: 0x4E313, size: 0x8, addend: 0x0, symName: __ZNSt3__117__compressed_pairINS_16__hash_node_baseIPNS_11__hash_nodeINS_17__hash_value_typeINS_12basic_stringIcNS_11char_traitsIcEENS_9allocatorIcEEEES9_EEPvEEEENS7_ISC_EEEC1B8ue170006ILb1EvEEv, symObjAddr: 0x4CFC, symBinAddr: 0x1000130E0, symSize: 0x2C }
  - { offsetInCU: 0xECE2, offset: 0x4E34B, size: 0x8, addend: 0x0, symName: __ZNSt3__117__compressed_pairImNS_22__unordered_map_hasherINS_12basic_stringIcNS_11char_traitsIcEENS_9allocatorIcEEEENS_17__hash_value_typeIS7_S7_EENS_4hashIS7_EENS_8equal_toIS7_EELb1EEEEC1B8ue170006IiNS_18__default_init_tagEEEOT_OT0_, symObjAddr: 0x4D28, symBinAddr: 0x10001310C, symSize: 0x3C }
  - { offsetInCU: 0xED3D, offset: 0x4E3A6, size: 0x8, addend: 0x0, symName: __ZNSt3__117__compressed_pairIfNS_21__unordered_map_equalINS_12basic_stringIcNS_11char_traitsIcEENS_9allocatorIcEEEENS_17__hash_value_typeIS7_S7_EENS_8equal_toIS7_EENS_4hashIS7_EELb1EEEEC1B8ue170006IfNS_18__default_init_tagEEEOT_OT0_, symObjAddr: 0x4D64, symBinAddr: 0x100013148, symSize: 0x3C }
  - { offsetInCU: 0xED93, offset: 0x4E3FC, size: 0x8, addend: 0x0, symName: __ZNSt3__110unique_ptrIA_PNS_16__hash_node_baseIPNS_11__hash_nodeINS_17__hash_value_typeINS_12basic_stringIcNS_11char_traitsIcEENS_9allocatorIcEEEES9_EEPvEEEENS_25__bucket_list_deallocatorINS7_ISF_EEEEEC2B8ue170006ILb1EvEEv, symObjAddr: 0x4DA0, symBinAddr: 0x100013184, symSize: 0x3C }
  - { offsetInCU: 0xEDCB, offset: 0x4E434, size: 0x8, addend: 0x0, symName: __ZNSt3__117__compressed_pairIPPNS_16__hash_node_baseIPNS_11__hash_nodeINS_17__hash_value_typeINS_12basic_stringIcNS_11char_traitsIcEENS_9allocatorIcEEEES9_EEPvEEEENS_25__bucket_list_deallocatorINS7_ISF_EEEEEC1B8ue170006INS_16__value_init_tagESM_EEOT_OT0_, symObjAddr: 0x4DDC, symBinAddr: 0x1000131C0, symSize: 0x3C }
  - { offsetInCU: 0xEE21, offset: 0x4E48A, size: 0x8, addend: 0x0, symName: __ZNSt3__117__compressed_pairIPPNS_16__hash_node_baseIPNS_11__hash_nodeINS_17__hash_value_typeINS_12basic_stringIcNS_11char_traitsIcEENS_9allocatorIcEEEES9_EEPvEEEENS_25__bucket_list_deallocatorINS7_ISF_EEEEEC2B8ue170006INS_16__value_init_tagESM_EEOT_OT0_, symObjAddr: 0x4E18, symBinAddr: 0x1000131FC, symSize: 0x40 }
  - { offsetInCU: 0xEE77, offset: 0x4E4E0, size: 0x8, addend: 0x0, symName: __ZNSt3__122__compressed_pair_elemIPPNS_16__hash_node_baseIPNS_11__hash_nodeINS_17__hash_value_typeINS_12basic_stringIcNS_11char_traitsIcEENS_9allocatorIcEEEES9_EEPvEEEELi0ELb0EEC2B8ue170006ENS_16__value_init_tagE, symObjAddr: 0x4E58, symBinAddr: 0x10001323C, symSize: 0x18 }
  - { offsetInCU: 0xEEAB, offset: 0x4E514, size: 0x8, addend: 0x0, symName: __ZNSt3__122__compressed_pair_elemINS_25__bucket_list_deallocatorINS_9allocatorIPNS_16__hash_node_baseIPNS_11__hash_nodeINS_17__hash_value_typeINS_12basic_stringIcNS_11char_traitsIcEENS2_IcEEEESA_EEPvEEEEEEEELi1ELb0EEC2B8ue170006ENS_16__value_init_tagE, symObjAddr: 0x4E70, symBinAddr: 0x100013254, symSize: 0x2C }
  - { offsetInCU: 0xEEDE, offset: 0x4E547, size: 0x8, addend: 0x0, symName: __ZNSt3__125__bucket_list_deallocatorINS_9allocatorIPNS_16__hash_node_baseIPNS_11__hash_nodeINS_17__hash_value_typeINS_12basic_stringIcNS_11char_traitsIcEENS1_IcEEEES9_EEPvEEEEEEEC1B8ue170006Ev, symObjAddr: 0x4E9C, symBinAddr: 0x100013280, symSize: 0x2C }
  - { offsetInCU: 0xEF06, offset: 0x4E56F, size: 0x8, addend: 0x0, symName: __ZNSt3__125__bucket_list_deallocatorINS_9allocatorIPNS_16__hash_node_baseIPNS_11__hash_nodeINS_17__hash_value_typeINS_12basic_stringIcNS_11char_traitsIcEENS1_IcEEEES9_EEPvEEEEEEEC2B8ue170006Ev, symObjAddr: 0x4EC8, symBinAddr: 0x1000132AC, symSize: 0x40 }
  - { offsetInCU: 0xEF2E, offset: 0x4E597, size: 0x8, addend: 0x0, symName: __ZNSt3__117__compressed_pairImNS_9allocatorIPNS_16__hash_node_baseIPNS_11__hash_nodeINS_17__hash_value_typeINS_12basic_stringIcNS_11char_traitsIcEENS1_IcEEEES9_EEPvEEEEEEEC1B8ue170006IiNS_18__default_init_tagEEEOT_OT0_, symObjAddr: 0x4F08, symBinAddr: 0x1000132EC, symSize: 0x3C }
  - { offsetInCU: 0xEF84, offset: 0x4E5ED, size: 0x8, addend: 0x0, symName: __ZNSt3__117__compressed_pairImNS_9allocatorIPNS_16__hash_node_baseIPNS_11__hash_nodeINS_17__hash_value_typeINS_12basic_stringIcNS_11char_traitsIcEENS1_IcEEEES9_EEPvEEEEEEEC2B8ue170006IiNS_18__default_init_tagEEEOT_OT0_, symObjAddr: 0x4F44, symBinAddr: 0x100013328, symSize: 0x40 }
  - { offsetInCU: 0xEFDA, offset: 0x4E643, size: 0x8, addend: 0x0, symName: __ZNSt3__122__compressed_pair_elemINS_9allocatorIPNS_16__hash_node_baseIPNS_11__hash_nodeINS_17__hash_value_typeINS_12basic_stringIcNS_11char_traitsIcEENS1_IcEEEES9_EEPvEEEEEELi1ELb1EEC2B8ue170006ENS_18__default_init_tagE, symObjAddr: 0x4FA8, symBinAddr: 0x100013368, symSize: 0x2C }
  - { offsetInCU: 0xF00D, offset: 0x4E676, size: 0x8, addend: 0x0, symName: __ZNSt3__19allocatorIPNS_16__hash_node_baseIPNS_11__hash_nodeINS_17__hash_value_typeINS_12basic_stringIcNS_11char_traitsIcEENS0_IcEEEES8_EEPvEEEEEC2B8ue170006Ev, symObjAddr: 0x4FD4, symBinAddr: 0x100013394, symSize: 0x2C }
  - { offsetInCU: 0xF035, offset: 0x4E69E, size: 0x8, addend: 0x0, symName: __ZNSt3__116__non_trivial_ifILb1ENS_9allocatorIPNS_16__hash_node_baseIPNS_11__hash_nodeINS_17__hash_value_typeINS_12basic_stringIcNS_11char_traitsIcEENS1_IcEEEES9_EEPvEEEEEEEC2B8ue170006Ev, symObjAddr: 0x5000, symBinAddr: 0x1000133C0, symSize: 0x14 }
  - { offsetInCU: 0xF05E, offset: 0x4E6C7, size: 0x8, addend: 0x0, symName: __ZNSt3__117__compressed_pairINS_16__hash_node_baseIPNS_11__hash_nodeINS_17__hash_value_typeINS_12basic_stringIcNS_11char_traitsIcEENS_9allocatorIcEEEES9_EEPvEEEENS7_ISC_EEEC2B8ue170006ILb1EvEEv, symObjAddr: 0x5014, symBinAddr: 0x1000133D4, symSize: 0x34 }
  - { offsetInCU: 0xF091, offset: 0x4E6FA, size: 0x8, addend: 0x0, symName: __ZNSt3__122__compressed_pair_elemINS_16__hash_node_baseIPNS_11__hash_nodeINS_17__hash_value_typeINS_12basic_stringIcNS_11char_traitsIcEENS_9allocatorIcEEEES9_EEPvEEEELi0ELb0EEC2B8ue170006ENS_16__value_init_tagE, symObjAddr: 0x5048, symBinAddr: 0x100013408, symSize: 0x2C }
  - { offsetInCU: 0xF0C4, offset: 0x4E72D, size: 0x8, addend: 0x0, symName: __ZNSt3__122__compressed_pair_elemINS_9allocatorINS_11__hash_nodeINS_17__hash_value_typeINS_12basic_stringIcNS_11char_traitsIcEENS1_IcEEEES8_EEPvEEEELi1ELb1EEC2B8ue170006ENS_16__value_init_tagE, symObjAddr: 0x5074, symBinAddr: 0x100013434, symSize: 0x2C }
  - { offsetInCU: 0xF0F7, offset: 0x4E760, size: 0x8, addend: 0x0, symName: __ZNSt3__116__hash_node_baseIPNS_11__hash_nodeINS_17__hash_value_typeINS_12basic_stringIcNS_11char_traitsIcEENS_9allocatorIcEEEES8_EEPvEEEC1B8ue170006Ev, symObjAddr: 0x50A0, symBinAddr: 0x100013460, symSize: 0x2C }
  - { offsetInCU: 0xF11F, offset: 0x4E788, size: 0x8, addend: 0x0, symName: __ZNSt3__116__hash_node_baseIPNS_11__hash_nodeINS_17__hash_value_typeINS_12basic_stringIcNS_11char_traitsIcEENS_9allocatorIcEEEES8_EEPvEEEC2B8ue170006Ev, symObjAddr: 0x50CC, symBinAddr: 0x10001348C, symSize: 0x18 }
  - { offsetInCU: 0xF148, offset: 0x4E7B1, size: 0x8, addend: 0x0, symName: __ZNSt3__19allocatorINS_11__hash_nodeINS_17__hash_value_typeINS_12basic_stringIcNS_11char_traitsIcEENS0_IcEEEES7_EEPvEEEC2B8ue170006Ev, symObjAddr: 0x50E4, symBinAddr: 0x1000134A4, symSize: 0x2C }
  - { offsetInCU: 0xF170, offset: 0x4E7D9, size: 0x8, addend: 0x0, symName: __ZNSt3__116__non_trivial_ifILb1ENS_9allocatorINS_11__hash_nodeINS_17__hash_value_typeINS_12basic_stringIcNS_11char_traitsIcEENS1_IcEEEES8_EEPvEEEEEC2B8ue170006Ev, symObjAddr: 0x5110, symBinAddr: 0x1000134D0, symSize: 0x14 }
  - { offsetInCU: 0xF199, offset: 0x4E802, size: 0x8, addend: 0x0, symName: __ZNSt3__117__compressed_pairImNS_22__unordered_map_hasherINS_12basic_stringIcNS_11char_traitsIcEENS_9allocatorIcEEEENS_17__hash_value_typeIS7_S7_EENS_4hashIS7_EENS_8equal_toIS7_EELb1EEEEC2B8ue170006IiNS_18__default_init_tagEEEOT_OT0_, symObjAddr: 0x5124, symBinAddr: 0x1000134E4, symSize: 0x40 }
  - { offsetInCU: 0xF1EF, offset: 0x4E858, size: 0x8, addend: 0x0, symName: __ZNSt3__122__compressed_pair_elemINS_22__unordered_map_hasherINS_12basic_stringIcNS_11char_traitsIcEENS_9allocatorIcEEEENS_17__hash_value_typeIS7_S7_EENS_4hashIS7_EENS_8equal_toIS7_EELb1EEELi1ELb1EEC2B8ue170006ENS_18__default_init_tagE, symObjAddr: 0x5164, symBinAddr: 0x100013524, symSize: 0x2C }
  - { offsetInCU: 0xF222, offset: 0x4E88B, size: 0x8, addend: 0x0, symName: __ZNSt3__122__unordered_map_hasherINS_12basic_stringIcNS_11char_traitsIcEENS_9allocatorIcEEEENS_17__hash_value_typeIS6_S6_EENS_4hashIS6_EENS_8equal_toIS6_EELb1EEC2B8ue170006Ev, symObjAddr: 0x5190, symBinAddr: 0x100013550, symSize: 0x14 }
  - { offsetInCU: 0xF24B, offset: 0x4E8B4, size: 0x8, addend: 0x0, symName: __ZNSt3__117__compressed_pairIfNS_21__unordered_map_equalINS_12basic_stringIcNS_11char_traitsIcEENS_9allocatorIcEEEENS_17__hash_value_typeIS7_S7_EENS_8equal_toIS7_EENS_4hashIS7_EELb1EEEEC2B8ue170006IfNS_18__default_init_tagEEEOT_OT0_, symObjAddr: 0x51A4, symBinAddr: 0x100013564, symSize: 0x40 }
  - { offsetInCU: 0xF2A1, offset: 0x4E90A, size: 0x8, addend: 0x0, symName: __ZNSt3__122__compressed_pair_elemINS_21__unordered_map_equalINS_12basic_stringIcNS_11char_traitsIcEENS_9allocatorIcEEEENS_17__hash_value_typeIS7_S7_EENS_8equal_toIS7_EENS_4hashIS7_EELb1EEELi1ELb1EEC2B8ue170006ENS_18__default_init_tagE, symObjAddr: 0x5208, symBinAddr: 0x1000135A4, symSize: 0x2C }
  - { offsetInCU: 0xF2D4, offset: 0x4E93D, size: 0x8, addend: 0x0, symName: __ZNSt3__121__unordered_map_equalINS_12basic_stringIcNS_11char_traitsIcEENS_9allocatorIcEEEENS_17__hash_value_typeIS6_S6_EENS_8equal_toIS6_EENS_4hashIS6_EELb1EEC2B8ue170006Ev, symObjAddr: 0x5234, symBinAddr: 0x1000135D0, symSize: 0x14 }
  - { offsetInCU: 0xF2FD, offset: 0x4E966, size: 0x8, addend: 0x0, symName: __ZNSt3__112__hash_tableINS_17__hash_value_typeINS_12basic_stringIcNS_11char_traitsIcEENS_9allocatorIcEEEES7_EENS_22__unordered_map_hasherIS7_S8_NS_4hashIS7_EENS_8equal_toIS7_EELb1EEENS_21__unordered_map_equalIS7_S8_SD_SB_Lb1EEENS5_IS8_EEE15__insert_uniqueB8ue170006IRNS_4pairIS7_S7_EEvEENSK_INS_15__hash_iteratorIPNS_11__hash_nodeIS8_PvEEEEbEEOT_, symObjAddr: 0x527C, symBinAddr: 0x100013618, symSize: 0x3C }
  - { offsetInCU: 0xF33B, offset: 0x4E9A4, size: 0x8, addend: 0x0, symName: __ZNKSt3__111__wrap_iterIPNS_4pairINS_12basic_stringIcNS_11char_traitsIcEENS_9allocatorIcEEEES7_EEEdeB8ue170006Ev, symObjAddr: 0x52B8, symBinAddr: 0x100013654, symSize: 0x18 }
  - { offsetInCU: 0xF360, offset: 0x4E9C9, size: 0x8, addend: 0x0, symName: __ZNSt3__111__wrap_iterIPNS_4pairINS_12basic_stringIcNS_11char_traitsIcEENS_9allocatorIcEEEES7_EEEppB8ue170006Ev, symObjAddr: 0x52D0, symBinAddr: 0x10001366C, symSize: 0x20 }
  - { offsetInCU: 0xF385, offset: 0x4E9EE, size: 0x8, addend: 0x0, symName: __ZNKSt3__111__wrap_iterIPNS_4pairINS_12basic_stringIcNS_11char_traitsIcEENS_9allocatorIcEEEES7_EEE4baseB8ue170006Ev, symObjAddr: 0x5338, symBinAddr: 0x1000136D4, symSize: 0x18 }
  - { offsetInCU: 0xF3AA, offset: 0x4EA13, size: 0x8, addend: 0x0, symName: __ZNSt3__112__hash_tableINS_17__hash_value_typeINS_12basic_stringIcNS_11char_traitsIcEENS_9allocatorIcEEEES7_EENS_22__unordered_map_hasherIS7_S8_NS_4hashIS7_EENS_8equal_toIS7_EELb1EEENS_21__unordered_map_equalIS7_S8_SD_SB_Lb1EEENS5_IS8_EEE16__emplace_uniqueB8ue170006IRNS_4pairIS7_S7_EEEENSK_INS_15__hash_iteratorIPNS_11__hash_nodeIS8_PvEEEEbEEOT_, symObjAddr: 0x5350, symBinAddr: 0x1000136EC, symSize: 0x3C }
  - { offsetInCU: 0xF3E7, offset: 0x4EA50, size: 0x8, addend: 0x0, symName: __ZNSt3__112__hash_tableINS_17__hash_value_typeINS_12basic_stringIcNS_11char_traitsIcEENS_9allocatorIcEEEES7_EENS_22__unordered_map_hasherIS7_S8_NS_4hashIS7_EENS_8equal_toIS7_EELb1EEENS_21__unordered_map_equalIS7_S8_SD_SB_Lb1EEENS5_IS8_EEE28__emplace_unique_extract_keyB8ue170006IRNS_4pairIS7_S7_EEEENSK_INS_15__hash_iteratorIPNS_11__hash_nodeIS8_PvEEEEbEEOT_NS_23__extract_key_first_tagE, symObjAddr: 0x538C, symBinAddr: 0x100013728, symSize: 0x40 }
  - { offsetInCU: 0xF430, offset: 0x4EA99, size: 0x8, addend: 0x0, symName: __ZNSt3__112__hash_tableINS_17__hash_value_typeINS_12basic_stringIcNS_11char_traitsIcEENS_9allocatorIcEEEES7_EENS_22__unordered_map_hasherIS7_S8_NS_4hashIS7_EENS_8equal_toIS7_EELb1EEENS_21__unordered_map_equalIS7_S8_SD_SB_Lb1EEENS5_IS8_EEE25__emplace_unique_key_argsIS7_JRNS_4pairIS7_S7_EEEEENSK_INS_15__hash_iteratorIPNS_11__hash_nodeIS8_PvEEEEbEERKT_DpOT0_, symObjAddr: 0x53CC, symBinAddr: 0x100013768, symSize: 0x4D8 }
  - { offsetInCU: 0xF510, offset: 0x4EB79, size: 0x8, addend: 0x0, symName: __ZNSt3__112__hash_tableINS_17__hash_value_typeINS_12basic_stringIcNS_11char_traitsIcEENS_9allocatorIcEEEES7_EENS_22__unordered_map_hasherIS7_S8_NS_4hashIS7_EENS_8equal_toIS7_EELb1EEENS_21__unordered_map_equalIS7_S8_SD_SB_Lb1EEENS5_IS8_EEE13hash_functionB8ue170006Ev, symObjAddr: 0x58A4, symBinAddr: 0x100013C40, symSize: 0x28 }
  - { offsetInCU: 0xF535, offset: 0x4EB9E, size: 0x8, addend: 0x0, symName: __ZNKSt3__122__unordered_map_hasherINS_12basic_stringIcNS_11char_traitsIcEENS_9allocatorIcEEEENS_17__hash_value_typeIS6_S6_EENS_4hashIS6_EENS_8equal_toIS6_EELb1EEclB8ue170006ERKS6_, symObjAddr: 0x58CC, symBinAddr: 0x100013C68, symSize: 0x2C }
  - { offsetInCU: 0xF569, offset: 0x4EBD2, size: 0x8, addend: 0x0, symName: __ZNKSt3__112__hash_tableINS_17__hash_value_typeINS_12basic_stringIcNS_11char_traitsIcEENS_9allocatorIcEEEES7_EENS_22__unordered_map_hasherIS7_S8_NS_4hashIS7_EENS_8equal_toIS7_EELb1EEENS_21__unordered_map_equalIS7_S8_SD_SB_Lb1EEENS5_IS8_EEE12bucket_countB8ue170006Ev, symObjAddr: 0x58F8, symBinAddr: 0x100013C94, symSize: 0x28 }
  - { offsetInCU: 0xF58E, offset: 0x4EBF7, size: 0x8, addend: 0x0, symName: __ZNKSt3__110unique_ptrIA_PNS_16__hash_node_baseIPNS_11__hash_nodeINS_17__hash_value_typeINS_12basic_stringIcNS_11char_traitsIcEENS_9allocatorIcEEEES9_EEPvEEEENS_25__bucket_list_deallocatorINS7_ISF_EEEEEixB8ue170006Em, symObjAddr: 0x59B8, symBinAddr: 0x100013CBC, symSize: 0x34 }
  - { offsetInCU: 0xF5C2, offset: 0x4EC2B, size: 0x8, addend: 0x0, symName: __ZNKSt3__116__hash_node_baseIPNS_11__hash_nodeINS_17__hash_value_typeINS_12basic_stringIcNS_11char_traitsIcEENS_9allocatorIcEEEES8_EEPvEEE6__hashB8ue170006Ev, symObjAddr: 0x59EC, symBinAddr: 0x100013CF0, symSize: 0x18 }
  - { offsetInCU: 0xF5E7, offset: 0x4EC50, size: 0x8, addend: 0x0, symName: __ZNSt3__112__hash_tableINS_17__hash_value_typeINS_12basic_stringIcNS_11char_traitsIcEENS_9allocatorIcEEEES7_EENS_22__unordered_map_hasherIS7_S8_NS_4hashIS7_EENS_8equal_toIS7_EELb1EEENS_21__unordered_map_equalIS7_S8_SD_SB_Lb1EEENS5_IS8_EEE6key_eqB8ue170006Ev, symObjAddr: 0x5A04, symBinAddr: 0x100013D08, symSize: 0x28 }
  - { offsetInCU: 0xF60C, offset: 0x4EC75, size: 0x8, addend: 0x0, symName: __ZNKSt3__121__unordered_map_equalINS_12basic_stringIcNS_11char_traitsIcEENS_9allocatorIcEEEENS_17__hash_value_typeIS6_S6_EENS_8equal_toIS6_EENS_4hashIS6_EELb1EEclB8ue170006ERKS8_RKS6_, symObjAddr: 0x5A2C, symBinAddr: 0x100013D30, symSize: 0x48 }
  - { offsetInCU: 0xF64F, offset: 0x4ECB8, size: 0x8, addend: 0x0, symName: __ZNSt3__116__hash_node_baseIPNS_11__hash_nodeINS_17__hash_value_typeINS_12basic_stringIcNS_11char_traitsIcEENS_9allocatorIcEEEES8_EEPvEEE8__upcastB8ue170006Ev, symObjAddr: 0x5A74, symBinAddr: 0x100013D78, symSize: 0x24 }
  - { offsetInCU: 0xF674, offset: 0x4ECDD, size: 0x8, addend: 0x0, symName: __ZNSt3__112__hash_tableINS_17__hash_value_typeINS_12basic_stringIcNS_11char_traitsIcEENS_9allocatorIcEEEES7_EENS_22__unordered_map_hasherIS7_S8_NS_4hashIS7_EENS_8equal_toIS7_EELb1EEENS_21__unordered_map_equalIS7_S8_SD_SB_Lb1EEENS5_IS8_EEE21__construct_node_hashIRNS_4pairIS7_S7_EEJEEENS_10unique_ptrINS_11__hash_nodeIS8_PvEENS_22__hash_node_destructorINS5_ISQ_EEEEEEmOT_DpOT0_, symObjAddr: 0x5A98, symBinAddr: 0x100013D9C, symSize: 0x140 }
  - { offsetInCU: 0xF6E6, offset: 0x4ED4F, size: 0x8, addend: 0x0, symName: __ZNSt3__112__hash_tableINS_17__hash_value_typeINS_12basic_stringIcNS_11char_traitsIcEENS_9allocatorIcEEEES7_EENS_22__unordered_map_hasherIS7_S8_NS_4hashIS7_EENS_8equal_toIS7_EELb1EEENS_21__unordered_map_equalIS7_S8_SD_SB_Lb1EEENS5_IS8_EEE4sizeB8ue170006Ev, symObjAddr: 0x5BD8, symBinAddr: 0x100013EDC, symSize: 0x28 }
  - { offsetInCU: 0xF70B, offset: 0x4ED74, size: 0x8, addend: 0x0, symName: __ZNSt3__112__hash_tableINS_17__hash_value_typeINS_12basic_stringIcNS_11char_traitsIcEENS_9allocatorIcEEEES7_EENS_22__unordered_map_hasherIS7_S8_NS_4hashIS7_EENS_8equal_toIS7_EELb1EEENS_21__unordered_map_equalIS7_S8_SD_SB_Lb1EEENS5_IS8_EEE15max_load_factorB8ue170006Ev, symObjAddr: 0x5C00, symBinAddr: 0x100013F04, symSize: 0x28 }
  - { offsetInCU: 0xF730, offset: 0x4ED99, size: 0x8, addend: 0x0, symName: __ZNSt3__112__hash_tableINS_17__hash_value_typeINS_12basic_stringIcNS_11char_traitsIcEENS_9allocatorIcEEEES7_EENS_22__unordered_map_hasherIS7_S8_NS_4hashIS7_EENS_8equal_toIS7_EELb1EEENS_21__unordered_map_equalIS7_S8_SD_SB_Lb1EEENS5_IS8_EEE15__rehash_uniqueB8ue170006Em, symObjAddr: 0x5C28, symBinAddr: 0x100013F2C, symSize: 0x2C }
  - { offsetInCU: 0xF764, offset: 0x4EDCD, size: 0x8, addend: 0x0, symName: __ZNSt3__117__compressed_pairINS_16__hash_node_baseIPNS_11__hash_nodeINS_17__hash_value_typeINS_12basic_stringIcNS_11char_traitsIcEENS_9allocatorIcEEEES9_EEPvEEEENS7_ISC_EEE5firstB8ue170006Ev, symObjAddr: 0x5CBC, symBinAddr: 0x100013F58, symSize: 0x24 }
  - { offsetInCU: 0xF789, offset: 0x4EDF2, size: 0x8, addend: 0x0, symName: __ZNSt3__116__hash_node_baseIPNS_11__hash_nodeINS_17__hash_value_typeINS_12basic_stringIcNS_11char_traitsIcEENS_9allocatorIcEEEES8_EEPvEEE5__ptrB8ue170006Ev, symObjAddr: 0x5CE0, symBinAddr: 0x100013F7C, symSize: 0x24 }
  - { offsetInCU: 0xF7AE, offset: 0x4EE17, size: 0x8, addend: 0x0, symName: __ZNKSt3__110unique_ptrINS_11__hash_nodeINS_17__hash_value_typeINS_12basic_stringIcNS_11char_traitsIcEENS_9allocatorIcEEEES8_EEPvEENS_22__hash_node_destructorINS6_ISB_EEEEEptB8ue170006Ev, symObjAddr: 0x5D04, symBinAddr: 0x100013FA0, symSize: 0x28 }
  - { offsetInCU: 0xF7D3, offset: 0x4EE3C, size: 0x8, addend: 0x0, symName: __ZNKSt3__110unique_ptrINS_11__hash_nodeINS_17__hash_value_typeINS_12basic_stringIcNS_11char_traitsIcEENS_9allocatorIcEEEES8_EEPvEENS_22__hash_node_destructorINS6_ISB_EEEEE3getB8ue170006Ev, symObjAddr: 0x5D2C, symBinAddr: 0x100013FC8, symSize: 0x28 }
  - { offsetInCU: 0xF7F8, offset: 0x4EE61, size: 0x8, addend: 0x0, symName: __ZNSt3__110unique_ptrINS_11__hash_nodeINS_17__hash_value_typeINS_12basic_stringIcNS_11char_traitsIcEENS_9allocatorIcEEEES8_EEPvEENS_22__hash_node_destructorINS6_ISB_EEEEE7releaseB8ue170006Ev, symObjAddr: 0x5D54, symBinAddr: 0x100013FF0, symSize: 0x44 }
  - { offsetInCU: 0xF82C, offset: 0x4EE95, size: 0x8, addend: 0x0, symName: __ZNSt3__110unique_ptrINS_11__hash_nodeINS_17__hash_value_typeINS_12basic_stringIcNS_11char_traitsIcEENS_9allocatorIcEEEES8_EEPvEENS_22__hash_node_destructorINS6_ISB_EEEEED1B8ue170006Ev, symObjAddr: 0x5D98, symBinAddr: 0x100014034, symSize: 0x2C }
  - { offsetInCU: 0xF854, offset: 0x4EEBD, size: 0x8, addend: 0x0, symName: __ZNSt3__115__hash_iteratorIPNS_11__hash_nodeINS_17__hash_value_typeINS_12basic_stringIcNS_11char_traitsIcEENS_9allocatorIcEEEES8_EEPvEEEC1B8ue170006EPNS_16__hash_node_baseISC_EE, symObjAddr: 0x5DC4, symBinAddr: 0x100014060, symSize: 0x34 }
  - { offsetInCU: 0xF895, offset: 0x4EEFE, size: 0x8, addend: 0x0, symName: __ZNSt3__14pairINS_15__hash_iteratorIPNS_11__hash_nodeINS_17__hash_value_typeINS_12basic_stringIcNS_11char_traitsIcEENS_9allocatorIcEEEES9_EEPvEEEEbEC1B8ue170006ISE_RbLSB_0EEEOT_OT0_, symObjAddr: 0x5DF8, symBinAddr: 0x100014094, symSize: 0x3C }
  - { offsetInCU: 0xF8F2, offset: 0x4EF5B, size: 0x8, addend: 0x0, symName: __ZNSt3__117__compressed_pairImNS_22__unordered_map_hasherINS_12basic_stringIcNS_11char_traitsIcEENS_9allocatorIcEEEENS_17__hash_value_typeIS7_S7_EENS_4hashIS7_EENS_8equal_toIS7_EELb1EEEE6secondB8ue170006Ev, symObjAddr: 0x5E34, symBinAddr: 0x1000140D0, symSize: 0x24 }
  - { offsetInCU: 0xF917, offset: 0x4EF80, size: 0x8, addend: 0x0, symName: __ZNSt3__122__compressed_pair_elemINS_22__unordered_map_hasherINS_12basic_stringIcNS_11char_traitsIcEENS_9allocatorIcEEEENS_17__hash_value_typeIS7_S7_EENS_4hashIS7_EENS_8equal_toIS7_EELb1EEELi1ELb1EE5__getB8ue170006Ev, symObjAddr: 0x5E58, symBinAddr: 0x1000140F4, symSize: 0x14 }
  - { offsetInCU: 0xF93C, offset: 0x4EFA5, size: 0x8, addend: 0x0, symName: __ZNKSt3__110unique_ptrIA_PNS_16__hash_node_baseIPNS_11__hash_nodeINS_17__hash_value_typeINS_12basic_stringIcNS_11char_traitsIcEENS_9allocatorIcEEEES9_EEPvEEEENS_25__bucket_list_deallocatorINS7_ISF_EEEEE11get_deleterB8ue170006Ev, symObjAddr: 0x6C78, symBinAddr: 0x100014108, symSize: 0x24 }
  - { offsetInCU: 0xF961, offset: 0x4EFCA, size: 0x8, addend: 0x0, symName: __ZNKSt3__125__bucket_list_deallocatorINS_9allocatorIPNS_16__hash_node_baseIPNS_11__hash_nodeINS_17__hash_value_typeINS_12basic_stringIcNS_11char_traitsIcEENS1_IcEEEES9_EEPvEEEEEEE4sizeB8ue170006Ev, symObjAddr: 0x6C9C, symBinAddr: 0x10001412C, symSize: 0x28 }
  - { offsetInCU: 0xF986, offset: 0x4EFEF, size: 0x8, addend: 0x0, symName: __ZNKSt3__117__compressed_pairIPPNS_16__hash_node_baseIPNS_11__hash_nodeINS_17__hash_value_typeINS_12basic_stringIcNS_11char_traitsIcEENS_9allocatorIcEEEES9_EEPvEEEENS_25__bucket_list_deallocatorINS7_ISF_EEEEE6secondB8ue170006Ev, symObjAddr: 0x6CC4, symBinAddr: 0x100014154, symSize: 0x28 }
  - { offsetInCU: 0xF9AB, offset: 0x4F014, size: 0x8, addend: 0x0, symName: __ZNKSt3__122__compressed_pair_elemINS_25__bucket_list_deallocatorINS_9allocatorIPNS_16__hash_node_baseIPNS_11__hash_nodeINS_17__hash_value_typeINS_12basic_stringIcNS_11char_traitsIcEENS2_IcEEEESA_EEPvEEEEEEEELi1ELb0EE5__getB8ue170006Ev, symObjAddr: 0x6CEC, symBinAddr: 0x10001417C, symSize: 0x14 }
  - { offsetInCU: 0xF9D0, offset: 0x4F039, size: 0x8, addend: 0x0, symName: __ZNKSt3__117__compressed_pairImNS_9allocatorIPNS_16__hash_node_baseIPNS_11__hash_nodeINS_17__hash_value_typeINS_12basic_stringIcNS_11char_traitsIcEENS1_IcEEEES9_EEPvEEEEEEE5firstB8ue170006Ev, symObjAddr: 0x6D00, symBinAddr: 0x100014190, symSize: 0x24 }
  - { offsetInCU: 0xF9F5, offset: 0x4F05E, size: 0x8, addend: 0x0, symName: __ZNKSt3__117__compressed_pairIPPNS_16__hash_node_baseIPNS_11__hash_nodeINS_17__hash_value_typeINS_12basic_stringIcNS_11char_traitsIcEENS_9allocatorIcEEEES9_EEPvEEEENS_25__bucket_list_deallocatorINS7_ISF_EEEEE5firstB8ue170006Ev, symObjAddr: 0x6D38, symBinAddr: 0x1000141B4, symSize: 0x24 }
  - { offsetInCU: 0xFA1A, offset: 0x4F083, size: 0x8, addend: 0x0, symName: __ZNKSt3__122__compressed_pair_elemIPPNS_16__hash_node_baseIPNS_11__hash_nodeINS_17__hash_value_typeINS_12basic_stringIcNS_11char_traitsIcEENS_9allocatorIcEEEES9_EEPvEEEELi0ELb0EE5__getB8ue170006Ev, symObjAddr: 0x6D5C, symBinAddr: 0x1000141D8, symSize: 0x14 }
  - { offsetInCU: 0xFA3F, offset: 0x4F0A8, size: 0x8, addend: 0x0, symName: __ZNSt3__117__compressed_pairIfNS_21__unordered_map_equalINS_12basic_stringIcNS_11char_traitsIcEENS_9allocatorIcEEEENS_17__hash_value_typeIS7_S7_EENS_8equal_toIS7_EENS_4hashIS7_EELb1EEEE6secondB8ue170006Ev, symObjAddr: 0x6D70, symBinAddr: 0x1000141EC, symSize: 0x24 }
  - { offsetInCU: 0xFA64, offset: 0x4F0CD, size: 0x8, addend: 0x0, symName: __ZNSt3__122__compressed_pair_elemINS_21__unordered_map_equalINS_12basic_stringIcNS_11char_traitsIcEENS_9allocatorIcEEEENS_17__hash_value_typeIS7_S7_EENS_8equal_toIS7_EENS_4hashIS7_EELb1EEELi1ELb1EE5__getB8ue170006Ev, symObjAddr: 0x6D94, symBinAddr: 0x100014210, symSize: 0x14 }
  - { offsetInCU: 0xFA89, offset: 0x4F0F2, size: 0x8, addend: 0x0, symName: __ZNKSt3__117__hash_value_typeINS_12basic_stringIcNS_11char_traitsIcEENS_9allocatorIcEEEES6_E11__get_valueB8ue170006Ev, symObjAddr: 0x6DDC, symBinAddr: 0x100014224, symSize: 0x24 }
  - { offsetInCU: 0xFAAE, offset: 0x4F117, size: 0x8, addend: 0x0, symName: __ZNSt3__114pointer_traitsIPNS_16__hash_node_baseIPNS_11__hash_nodeINS_17__hash_value_typeINS_12basic_stringIcNS_11char_traitsIcEENS_9allocatorIcEEEES9_EEPvEEEEE10pointer_toB8ue170006ERSE_, symObjAddr: 0x6FB4, symBinAddr: 0x100014280, symSize: 0x14 }
  - { offsetInCU: 0xFAD1, offset: 0x4F13A, size: 0x8, addend: 0x0, symName: __ZNSt3__112__hash_tableINS_17__hash_value_typeINS_12basic_stringIcNS_11char_traitsIcEENS_9allocatorIcEEEES7_EENS_22__unordered_map_hasherIS7_S8_NS_4hashIS7_EENS_8equal_toIS7_EELb1EEENS_21__unordered_map_equalIS7_S8_SD_SB_Lb1EEENS5_IS8_EEE12__node_allocB8ue170006Ev, symObjAddr: 0x6FC8, symBinAddr: 0x100014294, symSize: 0x28 }
  - { offsetInCU: 0xFAF6, offset: 0x4F15F, size: 0x8, addend: 0x0, symName: __ZNSt3__116allocator_traitsINS_9allocatorINS_11__hash_nodeINS_17__hash_value_typeINS_12basic_stringIcNS_11char_traitsIcEENS1_IcEEEES8_EEPvEEEEE8allocateB8ue170006ERSC_m, symObjAddr: 0x6FF0, symBinAddr: 0x1000142BC, symSize: 0x2C }
  - { offsetInCU: 0xFB29, offset: 0x4F192, size: 0x8, addend: 0x0, symName: __ZNSt3__122__hash_node_destructorINS_9allocatorINS_11__hash_nodeINS_17__hash_value_typeINS_12basic_stringIcNS_11char_traitsIcEENS1_IcEEEES8_EEPvEEEEEC1B8ue170006ERSC_b, symObjAddr: 0x701C, symBinAddr: 0x1000142E8, symSize: 0x48 }
  - { offsetInCU: 0xFB74, offset: 0x4F1DD, size: 0x8, addend: 0x0, symName: __ZNSt3__110unique_ptrINS_11__hash_nodeINS_17__hash_value_typeINS_12basic_stringIcNS_11char_traitsIcEENS_9allocatorIcEEEES8_EEPvEENS_22__hash_node_destructorINS6_ISB_EEEEEC1B8ue170006ILb1EvEEPSB_NS_16__dependent_typeINS_27__unique_ptr_deleter_sfinaeISE_EEXT_EE20__good_rval_ref_typeE, symObjAddr: 0x7064, symBinAddr: 0x100014330, symSize: 0x3C }
  - { offsetInCU: 0xFBC3, offset: 0x4F22C, size: 0x8, addend: 0x0, symName: __ZNSt3__116allocator_traitsINS_9allocatorINS_11__hash_nodeINS_17__hash_value_typeINS_12basic_stringIcNS_11char_traitsIcEENS1_IcEEEES8_EEPvEEEEE9constructB8ue170006INS_4pairIKS8_S8_EEJRNSF_IS8_S8_EEEvEEvRSC_PT_DpOT0_, symObjAddr: 0x70A0, symBinAddr: 0x10001436C, symSize: 0x34 }
  - { offsetInCU: 0xFC1C, offset: 0x4F285, size: 0x8, addend: 0x0, symName: __ZNSt3__122__hash_key_value_typesINS_17__hash_value_typeINS_12basic_stringIcNS_11char_traitsIcEENS_9allocatorIcEEEES7_EEE9__get_ptrB8ue170006ERS8_, symObjAddr: 0x70D4, symBinAddr: 0x1000143A0, symSize: 0x24 }
  - { offsetInCU: 0xFC3F, offset: 0x4F2A8, size: 0x8, addend: 0x0, symName: __ZNSt3__110unique_ptrINS_11__hash_nodeINS_17__hash_value_typeINS_12basic_stringIcNS_11char_traitsIcEENS_9allocatorIcEEEES8_EEPvEENS_22__hash_node_destructorINS6_ISB_EEEEE11get_deleterB8ue170006Ev, symObjAddr: 0x70F8, symBinAddr: 0x1000143C4, symSize: 0x24 }
  - { offsetInCU: 0xFC64, offset: 0x4F2CD, size: 0x8, addend: 0x0, symName: __ZNSt3__117__compressed_pairINS_16__hash_node_baseIPNS_11__hash_nodeINS_17__hash_value_typeINS_12basic_stringIcNS_11char_traitsIcEENS_9allocatorIcEEEES9_EEPvEEEENS7_ISC_EEE6secondB8ue170006Ev, symObjAddr: 0x711C, symBinAddr: 0x1000143E8, symSize: 0x24 }
  - { offsetInCU: 0xFC89, offset: 0x4F2F2, size: 0x8, addend: 0x0, symName: __ZNSt3__122__compressed_pair_elemINS_9allocatorINS_11__hash_nodeINS_17__hash_value_typeINS_12basic_stringIcNS_11char_traitsIcEENS1_IcEEEES8_EEPvEEEELi1ELb1EE5__getB8ue170006Ev, symObjAddr: 0x7140, symBinAddr: 0x10001440C, symSize: 0x14 }
  - { offsetInCU: 0xFCAE, offset: 0x4F317, size: 0x8, addend: 0x0, symName: __ZNSt3__19allocatorINS_11__hash_nodeINS_17__hash_value_typeINS_12basic_stringIcNS_11char_traitsIcEENS0_IcEEEES7_EEPvEEE8allocateB8ue170006Em, symObjAddr: 0x7154, symBinAddr: 0x100014420, symSize: 0x58 }
  - { offsetInCU: 0xFCEB, offset: 0x4F354, size: 0x8, addend: 0x0, symName: __ZNSt3__116allocator_traitsINS_9allocatorINS_11__hash_nodeINS_17__hash_value_typeINS_12basic_stringIcNS_11char_traitsIcEENS1_IcEEEES8_EEPvEEEEE8max_sizeB8ue170006ISC_vEEmRKSC_, symObjAddr: 0x71AC, symBinAddr: 0x100014478, symSize: 0x24 }
  - { offsetInCU: 0xFD19, offset: 0x4F382, size: 0x8, addend: 0x0, symName: __ZNKSt3__19allocatorINS_11__hash_nodeINS_17__hash_value_typeINS_12basic_stringIcNS_11char_traitsIcEENS0_IcEEEES7_EEPvEEE8max_sizeB8ue170006Ev, symObjAddr: 0x71D0, symBinAddr: 0x10001449C, symSize: 0x14 }
  - { offsetInCU: 0xFD3E, offset: 0x4F3A7, size: 0x8, addend: 0x0, symName: __ZNSt3__122__hash_node_destructorINS_9allocatorINS_11__hash_nodeINS_17__hash_value_typeINS_12basic_stringIcNS_11char_traitsIcEENS1_IcEEEES8_EEPvEEEEEC2B8ue170006ERSC_b, symObjAddr: 0x71E4, symBinAddr: 0x1000144B0, symSize: 0x38 }
  - { offsetInCU: 0xFD85, offset: 0x4F3EE, size: 0x8, addend: 0x0, symName: __ZNSt3__110unique_ptrINS_11__hash_nodeINS_17__hash_value_typeINS_12basic_stringIcNS_11char_traitsIcEENS_9allocatorIcEEEES8_EEPvEENS_22__hash_node_destructorINS6_ISB_EEEEEC2B8ue170006ILb1EvEEPSB_NS_16__dependent_typeINS_27__unique_ptr_deleter_sfinaeISE_EEXT_EE20__good_rval_ref_typeE, symObjAddr: 0x721C, symBinAddr: 0x1000144E8, symSize: 0x48 }
  - { offsetInCU: 0xFDD4, offset: 0x4F43D, size: 0x8, addend: 0x0, symName: __ZNSt3__117__compressed_pairIPNS_11__hash_nodeINS_17__hash_value_typeINS_12basic_stringIcNS_11char_traitsIcEENS_9allocatorIcEEEES8_EEPvEENS_22__hash_node_destructorINS6_ISB_EEEEEC1B8ue170006IRSC_SF_EEOT_OT0_, symObjAddr: 0x7264, symBinAddr: 0x100014530, symSize: 0x3C }
  - { offsetInCU: 0xFE2A, offset: 0x4F493, size: 0x8, addend: 0x0, symName: __ZNSt3__117__compressed_pairIPNS_11__hash_nodeINS_17__hash_value_typeINS_12basic_stringIcNS_11char_traitsIcEENS_9allocatorIcEEEES8_EEPvEENS_22__hash_node_destructorINS6_ISB_EEEEEC2B8ue170006IRSC_SF_EEOT_OT0_, symObjAddr: 0x72A0, symBinAddr: 0x10001456C, symSize: 0x48 }
  - { offsetInCU: 0xFE80, offset: 0x4F4E9, size: 0x8, addend: 0x0, symName: __ZNSt3__122__compressed_pair_elemIPNS_11__hash_nodeINS_17__hash_value_typeINS_12basic_stringIcNS_11char_traitsIcEENS_9allocatorIcEEEES8_EEPvEELi0ELb0EEC2B8ue170006IRSC_vEEOT_, symObjAddr: 0x72E8, symBinAddr: 0x1000145B4, symSize: 0x24 }
  - { offsetInCU: 0xFEC1, offset: 0x4F52A, size: 0x8, addend: 0x0, symName: __ZNSt3__122__compressed_pair_elemINS_22__hash_node_destructorINS_9allocatorINS_11__hash_nodeINS_17__hash_value_typeINS_12basic_stringIcNS_11char_traitsIcEENS2_IcEEEES9_EEPvEEEEEELi1ELb0EEC2B8ue170006ISE_vEEOT_, symObjAddr: 0x730C, symBinAddr: 0x1000145D8, symSize: 0x24 }
  - { offsetInCU: 0xFF02, offset: 0x4F56B, size: 0x8, addend: 0x0, symName: __ZNSt3__19allocatorINS_11__hash_nodeINS_17__hash_value_typeINS_12basic_stringIcNS_11char_traitsIcEENS0_IcEEEES7_EEPvEEE9constructB8ue170006INS_4pairIKS7_S7_EEJRNSD_IS7_S7_EEEEEvPT_DpOT0_, symObjAddr: 0x7330, symBinAddr: 0x1000145FC, symSize: 0x30 }
  - { offsetInCU: 0xFF59, offset: 0x4F5C2, size: 0x8, addend: 0x0, symName: __ZNSt3__14pairIKNS_12basic_stringIcNS_11char_traitsIcEENS_9allocatorIcEEEES6_EC1B8ue170006IS6_S6_LPv0EEERKNS0_IT_T0_EE, symObjAddr: 0x7360, symBinAddr: 0x10001462C, symSize: 0x34 }
  - { offsetInCU: 0xFFA8, offset: 0x4F611, size: 0x8, addend: 0x0, symName: __ZNSt3__14pairIKNS_12basic_stringIcNS_11char_traitsIcEENS_9allocatorIcEEEES6_EC2B8ue170006IS6_S6_LPv0EEERKNS0_IT_T0_EE, symObjAddr: 0x7394, symBinAddr: 0x100014660, symSize: 0x70 }
  - { offsetInCU: 0xFFF7, offset: 0x4F660, size: 0x8, addend: 0x0, symName: __ZNSt3__117__hash_value_typeINS_12basic_stringIcNS_11char_traitsIcEENS_9allocatorIcEEEES6_E11__get_valueB8ue170006Ev, symObjAddr: 0x7404, symBinAddr: 0x1000146D0, symSize: 0x24 }
  - { offsetInCU: 0x1001C, offset: 0x4F685, size: 0x8, addend: 0x0, symName: __ZNSt3__117__compressed_pairIPNS_11__hash_nodeINS_17__hash_value_typeINS_12basic_stringIcNS_11char_traitsIcEENS_9allocatorIcEEEES8_EEPvEENS_22__hash_node_destructorINS6_ISB_EEEEE6secondB8ue170006Ev, symObjAddr: 0x7460, symBinAddr: 0x10001472C, symSize: 0x28 }
  - { offsetInCU: 0x10041, offset: 0x4F6AA, size: 0x8, addend: 0x0, symName: __ZNSt3__122__compressed_pair_elemINS_22__hash_node_destructorINS_9allocatorINS_11__hash_nodeINS_17__hash_value_typeINS_12basic_stringIcNS_11char_traitsIcEENS2_IcEEEES9_EEPvEEEEEELi1ELb0EE5__getB8ue170006Ev, symObjAddr: 0x7488, symBinAddr: 0x100014754, symSize: 0x14 }
  - { offsetInCU: 0x10066, offset: 0x4F6CF, size: 0x8, addend: 0x0, symName: __ZNSt3__117__compressed_pairImNS_22__unordered_map_hasherINS_12basic_stringIcNS_11char_traitsIcEENS_9allocatorIcEEEENS_17__hash_value_typeIS7_S7_EENS_4hashIS7_EENS_8equal_toIS7_EELb1EEEE5firstB8ue170006Ev, symObjAddr: 0x749C, symBinAddr: 0x100014768, symSize: 0x24 }
  - { offsetInCU: 0x1008B, offset: 0x4F6F4, size: 0x8, addend: 0x0, symName: __ZNSt3__117__compressed_pairIfNS_21__unordered_map_equalINS_12basic_stringIcNS_11char_traitsIcEENS_9allocatorIcEEEENS_17__hash_value_typeIS7_S7_EENS_8equal_toIS7_EENS_4hashIS7_EELb1EEEE5firstB8ue170006Ev, symObjAddr: 0x74D4, symBinAddr: 0x10001478C, symSize: 0x24 }
  - { offsetInCU: 0x100B0, offset: 0x4F719, size: 0x8, addend: 0x0, symName: __ZNSt3__112__hash_tableINS_17__hash_value_typeINS_12basic_stringIcNS_11char_traitsIcEENS_9allocatorIcEEEES7_EENS_22__unordered_map_hasherIS7_S8_NS_4hashIS7_EENS_8equal_toIS7_EELb1EEENS_21__unordered_map_equalIS7_S8_SD_SB_Lb1EEENS5_IS8_EEE8__rehashILb1EEEvm, symObjAddr: 0x750C, symBinAddr: 0x1000147B0, symSize: 0x1A8 }
  - { offsetInCU: 0x100FE, offset: 0x4F767, size: 0x8, addend: 0x0, symName: __ZNSt3__112__hash_tableINS_17__hash_value_typeINS_12basic_stringIcNS_11char_traitsIcEENS_9allocatorIcEEEES7_EENS_22__unordered_map_hasherIS7_S8_NS_4hashIS7_EENS_8equal_toIS7_EELb1EEENS_21__unordered_map_equalIS7_S8_SD_SB_Lb1EEENS5_IS8_EEE11__do_rehashILb1EEEvm, symObjAddr: 0x76B4, symBinAddr: 0x100014958, symSize: 0x288 }
  - { offsetInCU: 0x101E3, offset: 0x4F84C, size: 0x8, addend: 0x0, symName: __ZNSt3__110unique_ptrIA_PNS_16__hash_node_baseIPNS_11__hash_nodeINS_17__hash_value_typeINS_12basic_stringIcNS_11char_traitsIcEENS_9allocatorIcEEEES9_EEPvEEEENS_25__bucket_list_deallocatorINS7_ISF_EEEEE11get_deleterB8ue170006Ev, symObjAddr: 0x79A8, symBinAddr: 0x100014BE0, symSize: 0x24 }
  - { offsetInCU: 0x10208, offset: 0x4F871, size: 0x8, addend: 0x0, symName: __ZNSt3__125__bucket_list_deallocatorINS_9allocatorIPNS_16__hash_node_baseIPNS_11__hash_nodeINS_17__hash_value_typeINS_12basic_stringIcNS_11char_traitsIcEENS1_IcEEEES9_EEPvEEEEEEE7__allocB8ue170006Ev, symObjAddr: 0x79CC, symBinAddr: 0x100014C04, symSize: 0x24 }
  - { offsetInCU: 0x1022D, offset: 0x4F896, size: 0x8, addend: 0x0, symName: __ZNSt3__110unique_ptrIA_PNS_16__hash_node_baseIPNS_11__hash_nodeINS_17__hash_value_typeINS_12basic_stringIcNS_11char_traitsIcEENS_9allocatorIcEEEES9_EEPvEEEENS_25__bucket_list_deallocatorINS7_ISF_EEEEE5resetB8ue170006IPSF_EENS_9enable_ifIXsr28_CheckArrayPointerConversionIT_EE5valueEvE4typeESO_, symObjAddr: 0x79F0, symBinAddr: 0x100014C28, symSize: 0x78 }
  - { offsetInCU: 0x10279, offset: 0x4F8E2, size: 0x8, addend: 0x0, symName: __ZNSt3__116allocator_traitsINS_9allocatorIPNS_16__hash_node_baseIPNS_11__hash_nodeINS_17__hash_value_typeINS_12basic_stringIcNS_11char_traitsIcEENS1_IcEEEES9_EEPvEEEEEEE8allocateB8ue170006ERSG_m, symObjAddr: 0x7A68, symBinAddr: 0x100014CA0, symSize: 0x2C }
  - { offsetInCU: 0x102AC, offset: 0x4F915, size: 0x8, addend: 0x0, symName: __ZNSt3__125__bucket_list_deallocatorINS_9allocatorIPNS_16__hash_node_baseIPNS_11__hash_nodeINS_17__hash_value_typeINS_12basic_stringIcNS_11char_traitsIcEENS1_IcEEEES9_EEPvEEEEEEE4sizeB8ue170006Ev, symObjAddr: 0x7A94, symBinAddr: 0x100014CCC, symSize: 0x24 }
  - { offsetInCU: 0x102D1, offset: 0x4F93A, size: 0x8, addend: 0x0, symName: __ZNSt3__117__compressed_pairIPPNS_16__hash_node_baseIPNS_11__hash_nodeINS_17__hash_value_typeINS_12basic_stringIcNS_11char_traitsIcEENS_9allocatorIcEEEES9_EEPvEEEENS_25__bucket_list_deallocatorINS7_ISF_EEEEE6secondB8ue170006Ev, symObjAddr: 0x7AB8, symBinAddr: 0x100014CF0, symSize: 0x28 }
  - { offsetInCU: 0x102F6, offset: 0x4F95F, size: 0x8, addend: 0x0, symName: __ZNSt3__122__compressed_pair_elemINS_25__bucket_list_deallocatorINS_9allocatorIPNS_16__hash_node_baseIPNS_11__hash_nodeINS_17__hash_value_typeINS_12basic_stringIcNS_11char_traitsIcEENS2_IcEEEESA_EEPvEEEEEEEELi1ELb0EE5__getB8ue170006Ev, symObjAddr: 0x7AE0, symBinAddr: 0x100014D18, symSize: 0x14 }
  - { offsetInCU: 0x1031B, offset: 0x4F984, size: 0x8, addend: 0x0, symName: __ZNSt3__117__compressed_pairImNS_9allocatorIPNS_16__hash_node_baseIPNS_11__hash_nodeINS_17__hash_value_typeINS_12basic_stringIcNS_11char_traitsIcEENS1_IcEEEES9_EEPvEEEEEEE6secondB8ue170006Ev, symObjAddr: 0x7AF4, symBinAddr: 0x100014D2C, symSize: 0x24 }
  - { offsetInCU: 0x10340, offset: 0x4F9A9, size: 0x8, addend: 0x0, symName: __ZNSt3__122__compressed_pair_elemINS_9allocatorIPNS_16__hash_node_baseIPNS_11__hash_nodeINS_17__hash_value_typeINS_12basic_stringIcNS_11char_traitsIcEENS1_IcEEEES9_EEPvEEEEEELi1ELb1EE5__getB8ue170006Ev, symObjAddr: 0x7B18, symBinAddr: 0x100014D50, symSize: 0x14 }
  - { offsetInCU: 0x10365, offset: 0x4F9CE, size: 0x8, addend: 0x0, symName: __ZNSt3__117__compressed_pairIPPNS_16__hash_node_baseIPNS_11__hash_nodeINS_17__hash_value_typeINS_12basic_stringIcNS_11char_traitsIcEENS_9allocatorIcEEEES9_EEPvEEEENS_25__bucket_list_deallocatorINS7_ISF_EEEEE5firstB8ue170006Ev, symObjAddr: 0x7B2C, symBinAddr: 0x100014D64, symSize: 0x24 }
  - { offsetInCU: 0x1038A, offset: 0x4F9F3, size: 0x8, addend: 0x0, symName: __ZNSt3__125__bucket_list_deallocatorINS_9allocatorIPNS_16__hash_node_baseIPNS_11__hash_nodeINS_17__hash_value_typeINS_12basic_stringIcNS_11char_traitsIcEENS1_IcEEEES9_EEPvEEEEEEEclB8ue170006EPSF_, symObjAddr: 0x7B50, symBinAddr: 0x100014D88, symSize: 0x58 }
  - { offsetInCU: 0x103BE, offset: 0x4FA27, size: 0x8, addend: 0x0, symName: __ZNSt3__122__compressed_pair_elemIPPNS_16__hash_node_baseIPNS_11__hash_nodeINS_17__hash_value_typeINS_12basic_stringIcNS_11char_traitsIcEENS_9allocatorIcEEEES9_EEPvEEEELi0ELb0EE5__getB8ue170006Ev, symObjAddr: 0x7BA8, symBinAddr: 0x100014DE0, symSize: 0x14 }
  - { offsetInCU: 0x103E3, offset: 0x4FA4C, size: 0x8, addend: 0x0, symName: __ZNSt3__116allocator_traitsINS_9allocatorIPNS_16__hash_node_baseIPNS_11__hash_nodeINS_17__hash_value_typeINS_12basic_stringIcNS_11char_traitsIcEENS1_IcEEEES9_EEPvEEEEEEE10deallocateB8ue170006ERSG_PSF_m, symObjAddr: 0x7BBC, symBinAddr: 0x100014DF4, symSize: 0x34 }
  - { offsetInCU: 0x10425, offset: 0x4FA8E, size: 0x8, addend: 0x0, symName: __ZNSt3__19allocatorIPNS_16__hash_node_baseIPNS_11__hash_nodeINS_17__hash_value_typeINS_12basic_stringIcNS_11char_traitsIcEENS0_IcEEEES8_EEPvEEEEE10deallocateB8ue170006EPSE_m, symObjAddr: 0x7BF0, symBinAddr: 0x100014E28, symSize: 0x40 }
  - { offsetInCU: 0x10466, offset: 0x4FACF, size: 0x8, addend: 0x0, symName: __ZNSt3__19allocatorIPNS_16__hash_node_baseIPNS_11__hash_nodeINS_17__hash_value_typeINS_12basic_stringIcNS_11char_traitsIcEENS0_IcEEEES8_EEPvEEEEE8allocateB8ue170006Em, symObjAddr: 0x7C30, symBinAddr: 0x100014E68, symSize: 0x58 }
  - { offsetInCU: 0x104A3, offset: 0x4FB0C, size: 0x8, addend: 0x0, symName: __ZNSt3__116allocator_traitsINS_9allocatorIPNS_16__hash_node_baseIPNS_11__hash_nodeINS_17__hash_value_typeINS_12basic_stringIcNS_11char_traitsIcEENS1_IcEEEES9_EEPvEEEEEEE8max_sizeB8ue170006ISG_vEEmRKSG_, symObjAddr: 0x7C88, symBinAddr: 0x100014EC0, symSize: 0x24 }
  - { offsetInCU: 0x104D1, offset: 0x4FB3A, size: 0x8, addend: 0x0, symName: __ZNKSt3__19allocatorIPNS_16__hash_node_baseIPNS_11__hash_nodeINS_17__hash_value_typeINS_12basic_stringIcNS_11char_traitsIcEENS0_IcEEEES8_EEPvEEEEE8max_sizeB8ue170006Ev, symObjAddr: 0x7CAC, symBinAddr: 0x100014EE4, symSize: 0x14 }
  - { offsetInCU: 0x104F6, offset: 0x4FB5F, size: 0x8, addend: 0x0, symName: __ZNSt3__117__compressed_pairImNS_9allocatorIPNS_16__hash_node_baseIPNS_11__hash_nodeINS_17__hash_value_typeINS_12basic_stringIcNS_11char_traitsIcEENS1_IcEEEES9_EEPvEEEEEEE5firstB8ue170006Ev, symObjAddr: 0x7CC0, symBinAddr: 0x100014EF8, symSize: 0x24 }
  - { offsetInCU: 0x1051B, offset: 0x4FB84, size: 0x8, addend: 0x0, symName: __ZNSt3__122__compressed_pair_elemINS_16__hash_node_baseIPNS_11__hash_nodeINS_17__hash_value_typeINS_12basic_stringIcNS_11char_traitsIcEENS_9allocatorIcEEEES9_EEPvEEEELi0ELb0EE5__getB8ue170006Ev, symObjAddr: 0x7D00, symBinAddr: 0x100014F1C, symSize: 0x14 }
  - { offsetInCU: 0x10540, offset: 0x4FBA9, size: 0x8, addend: 0x0, symName: __ZNKSt3__117__compressed_pairIPNS_11__hash_nodeINS_17__hash_value_typeINS_12basic_stringIcNS_11char_traitsIcEENS_9allocatorIcEEEES8_EEPvEENS_22__hash_node_destructorINS6_ISB_EEEEE5firstB8ue170006Ev, symObjAddr: 0x7D14, symBinAddr: 0x100014F30, symSize: 0x24 }
  - { offsetInCU: 0x10565, offset: 0x4FBCE, size: 0x8, addend: 0x0, symName: __ZNKSt3__122__compressed_pair_elemIPNS_11__hash_nodeINS_17__hash_value_typeINS_12basic_stringIcNS_11char_traitsIcEENS_9allocatorIcEEEES8_EEPvEELi0ELb0EE5__getB8ue170006Ev, symObjAddr: 0x7D38, symBinAddr: 0x100014F54, symSize: 0x14 }
  - { offsetInCU: 0x1058A, offset: 0x4FBF3, size: 0x8, addend: 0x0, symName: __ZNSt3__117__compressed_pairIPNS_11__hash_nodeINS_17__hash_value_typeINS_12basic_stringIcNS_11char_traitsIcEENS_9allocatorIcEEEES8_EEPvEENS_22__hash_node_destructorINS6_ISB_EEEEE5firstB8ue170006Ev, symObjAddr: 0x7D4C, symBinAddr: 0x100014F68, symSize: 0x24 }
  - { offsetInCU: 0x105AF, offset: 0x4FC18, size: 0x8, addend: 0x0, symName: __ZNSt3__122__compressed_pair_elemIPNS_11__hash_nodeINS_17__hash_value_typeINS_12basic_stringIcNS_11char_traitsIcEENS_9allocatorIcEEEES8_EEPvEELi0ELb0EE5__getB8ue170006Ev, symObjAddr: 0x7D70, symBinAddr: 0x100014F8C, symSize: 0x14 }
  - { offsetInCU: 0x105D4, offset: 0x4FC3D, size: 0x8, addend: 0x0, symName: __ZNSt3__110unique_ptrINS_11__hash_nodeINS_17__hash_value_typeINS_12basic_stringIcNS_11char_traitsIcEENS_9allocatorIcEEEES8_EEPvEENS_22__hash_node_destructorINS6_ISB_EEEEED2B8ue170006Ev, symObjAddr: 0x7D84, symBinAddr: 0x100014FA0, symSize: 0x30 }
  - { offsetInCU: 0x105FC, offset: 0x4FC65, size: 0x8, addend: 0x0, symName: __ZNSt3__110unique_ptrINS_11__hash_nodeINS_17__hash_value_typeINS_12basic_stringIcNS_11char_traitsIcEENS_9allocatorIcEEEES8_EEPvEENS_22__hash_node_destructorINS6_ISB_EEEEE5resetB8ue170006EPSB_, symObjAddr: 0x7DB4, symBinAddr: 0x100014FD0, symSize: 0x78 }
  - { offsetInCU: 0x1063F, offset: 0x4FCA8, size: 0x8, addend: 0x0, symName: __ZNSt3__122__hash_node_destructorINS_9allocatorINS_11__hash_nodeINS_17__hash_value_typeINS_12basic_stringIcNS_11char_traitsIcEENS1_IcEEEES8_EEPvEEEEEclB8ue170006EPSB_, symObjAddr: 0x7E2C, symBinAddr: 0x100015048, symSize: 0x98 }
  - { offsetInCU: 0x10673, offset: 0x4FCDC, size: 0x8, addend: 0x0, symName: __ZNSt3__116allocator_traitsINS_9allocatorINS_11__hash_nodeINS_17__hash_value_typeINS_12basic_stringIcNS_11char_traitsIcEENS1_IcEEEES8_EEPvEEEEE7destroyB8ue170006INS_4pairIKS8_S8_EEvvEEvRSC_PT_, symObjAddr: 0x7EC4, symBinAddr: 0x1000150E0, symSize: 0x28 }
  - { offsetInCU: 0x106AE, offset: 0x4FD17, size: 0x8, addend: 0x0, symName: __ZNSt3__116allocator_traitsINS_9allocatorINS_11__hash_nodeINS_17__hash_value_typeINS_12basic_stringIcNS_11char_traitsIcEENS1_IcEEEES8_EEPvEEEEE10deallocateB8ue170006ERSC_PSB_m, symObjAddr: 0x7EEC, symBinAddr: 0x100015108, symSize: 0x34 }
  - { offsetInCU: 0x106F0, offset: 0x4FD59, size: 0x8, addend: 0x0, symName: __ZNSt3__14pairIKNS_12basic_stringIcNS_11char_traitsIcEENS_9allocatorIcEEEES6_ED1Ev, symObjAddr: 0x7F20, symBinAddr: 0x10001513C, symSize: 0x2C }
  - { offsetInCU: 0x1071B, offset: 0x4FD84, size: 0x8, addend: 0x0, symName: __ZNSt3__14pairIKNS_12basic_stringIcNS_11char_traitsIcEENS_9allocatorIcEEEES6_ED2Ev, symObjAddr: 0x7F4C, symBinAddr: 0x100015168, symSize: 0x38 }
  - { offsetInCU: 0x10746, offset: 0x4FDAF, size: 0x8, addend: 0x0, symName: __ZNSt3__19allocatorINS_11__hash_nodeINS_17__hash_value_typeINS_12basic_stringIcNS_11char_traitsIcEENS0_IcEEEES7_EEPvEEE10deallocateB8ue170006EPSA_m, symObjAddr: 0x7F84, symBinAddr: 0x1000151A0, symSize: 0x40 }
  - { offsetInCU: 0x10787, offset: 0x4FDF0, size: 0x8, addend: 0x0, symName: __ZNSt3__115__hash_iteratorIPNS_11__hash_nodeINS_17__hash_value_typeINS_12basic_stringIcNS_11char_traitsIcEENS_9allocatorIcEEEES8_EEPvEEEC2B8ue170006EPNS_16__hash_node_baseISC_EE, symObjAddr: 0x7FC4, symBinAddr: 0x1000151E0, symSize: 0x20 }
  - { offsetInCU: 0x107BF, offset: 0x4FE28, size: 0x8, addend: 0x0, symName: __ZNSt3__14pairINS_15__hash_iteratorIPNS_11__hash_nodeINS_17__hash_value_typeINS_12basic_stringIcNS_11char_traitsIcEENS_9allocatorIcEEEES9_EEPvEEEEbEC2B8ue170006ISE_RbLSB_0EEEOT_OT0_, symObjAddr: 0x7FE4, symBinAddr: 0x100015200, symSize: 0x38 }
  - { offsetInCU: 0x1081D, offset: 0x4FE86, size: 0x8, addend: 0x0, symName: __ZNSt3__112__hash_tableINS_17__hash_value_typeINS_12basic_stringIcNS_11char_traitsIcEENS_9allocatorIcEEEES7_EENS_22__unordered_map_hasherIS7_S8_NS_4hashIS7_EENS_8equal_toIS7_EELb1EEENS_21__unordered_map_equalIS7_S8_SD_SB_Lb1EEENS5_IS8_EEED2Ev, symObjAddr: 0x801C, symBinAddr: 0x100015238, symSize: 0x48 }
  - { offsetInCU: 0x10847, offset: 0x4FEB0, size: 0x8, addend: 0x0, symName: __ZNSt3__112__hash_tableINS_17__hash_value_typeINS_12basic_stringIcNS_11char_traitsIcEENS_9allocatorIcEEEES7_EENS_22__unordered_map_hasherIS7_S8_NS_4hashIS7_EENS_8equal_toIS7_EELb1EEENS_21__unordered_map_equalIS7_S8_SD_SB_Lb1EEENS5_IS8_EEE17__deallocate_nodeEPNS_16__hash_node_baseIPNS_11__hash_nodeIS8_PvEEEE, symObjAddr: 0x8064, symBinAddr: 0x100015280, symSize: 0xA4 }
  - { offsetInCU: 0x108AF, offset: 0x4FF18, size: 0x8, addend: 0x0, symName: __ZNSt3__110unique_ptrIA_PNS_16__hash_node_baseIPNS_11__hash_nodeINS_17__hash_value_typeINS_12basic_stringIcNS_11char_traitsIcEENS_9allocatorIcEEEES9_EEPvEEEENS_25__bucket_list_deallocatorINS7_ISF_EEEEED1B8ue170006Ev, symObjAddr: 0x8108, symBinAddr: 0x100015324, symSize: 0x2C }
  - { offsetInCU: 0x108D7, offset: 0x4FF40, size: 0x8, addend: 0x0, symName: __ZNSt3__110unique_ptrIA_PNS_16__hash_node_baseIPNS_11__hash_nodeINS_17__hash_value_typeINS_12basic_stringIcNS_11char_traitsIcEENS_9allocatorIcEEEES9_EEPvEEEENS_25__bucket_list_deallocatorINS7_ISF_EEEEED2B8ue170006Ev, symObjAddr: 0x8134, symBinAddr: 0x100015350, symSize: 0x30 }
  - { offsetInCU: 0x108FF, offset: 0x4FF68, size: 0x8, addend: 0x0, symName: __ZNSt3__110unique_ptrIA_PNS_16__hash_node_baseIPNS_11__hash_nodeINS_17__hash_value_typeINS_12basic_stringIcNS_11char_traitsIcEENS_9allocatorIcEEEES9_EEPvEEEENS_25__bucket_list_deallocatorINS7_ISF_EEEEE5resetB8ue170006EDn, symObjAddr: 0x8164, symBinAddr: 0x100015380, symSize: 0x6C }
  - { offsetInCU: 0x1093F, offset: 0x4FFA8, size: 0x8, addend: 0x0, symName: __ZNSt3__113unordered_mapINS_12basic_stringIcNS_11char_traitsIcEENS_9allocatorIcEEEES6_NS_4hashIS6_EENS_8equal_toIS6_EENS4_INS_4pairIKS6_S6_EEEEED2B8ue170006Ev, symObjAddr: 0x81D0, symBinAddr: 0x1000153EC, symSize: 0x2C }
  - { offsetInCU: 0x10967, offset: 0x4FFD0, size: 0x8, addend: 0x0, symName: __ZNSt3__112__hash_tableINS_17__hash_value_typeINS_12basic_stringIcNS_11char_traitsIcEENS_9allocatorIcEEEES7_EENS_22__unordered_map_hasherIS7_S8_NS_4hashIS7_EENS_8equal_toIS7_EELb1EEENS_21__unordered_map_equalIS7_S8_SD_SB_Lb1EEENS5_IS8_EEE4findIS7_EENS_15__hash_iteratorIPNS_11__hash_nodeIS8_PvEEEERKT_, symObjAddr: 0x81FC, symBinAddr: 0x100015418, symSize: 0x1B0 }
  - { offsetInCU: 0x109F0, offset: 0x50059, size: 0x8, addend: 0x0, symName: __ZNSt3__119__hash_map_iteratorINS_15__hash_iteratorIPNS_11__hash_nodeINS_17__hash_value_typeINS_12basic_stringIcNS_11char_traitsIcEENS_9allocatorIcEEEES9_EEPvEEEEEC1B8ue170006ESE_, symObjAddr: 0x83AC, symBinAddr: 0x1000155C8, symSize: 0x34 }
  - { offsetInCU: 0x10A27, offset: 0x50090, size: 0x8, addend: 0x0, symName: __ZNSt3__112__hash_tableINS_17__hash_value_typeINS_12basic_stringIcNS_11char_traitsIcEENS_9allocatorIcEEEES7_EENS_22__unordered_map_hasherIS7_S8_NS_4hashIS7_EENS_8equal_toIS7_EELb1EEENS_21__unordered_map_equalIS7_S8_SD_SB_Lb1EEENS5_IS8_EEE3endEv, symObjAddr: 0x83E0, symBinAddr: 0x1000155FC, symSize: 0x2C }
  - { offsetInCU: 0x10A4D, offset: 0x500B6, size: 0x8, addend: 0x0, symName: __ZNSt3__119__hash_map_iteratorINS_15__hash_iteratorIPNS_11__hash_nodeINS_17__hash_value_typeINS_12basic_stringIcNS_11char_traitsIcEENS_9allocatorIcEEEES9_EEPvEEEEEC2B8ue170006ESE_, symObjAddr: 0x840C, symBinAddr: 0x100015628, symSize: 0x20 }
  - { offsetInCU: 0x10A99, offset: 0x50102, size: 0x8, addend: 0x0, symName: __ZNSt3__112__hash_tableINS_17__hash_value_typeINS_12basic_stringIcNS_11char_traitsIcEENS_9allocatorIcEEEES7_EENS_22__unordered_map_hasherIS7_S8_NS_4hashIS7_EENS_8equal_toIS7_EELb1EEENS_21__unordered_map_equalIS7_S8_SD_SB_Lb1EEENS5_IS8_EEE25__emplace_unique_key_argsIS7_JRKNS_21piecewise_construct_tENS_5tupleIJOS7_EEENSN_IJEEEEEENS_4pairINS_15__hash_iteratorIPNS_11__hash_nodeIS8_PvEEEEbEERKT_DpOT0_, symObjAddr: 0x8CC4, symBinAddr: 0x100015678, symSize: 0x4B0 }
  - { offsetInCU: 0x10BA5, offset: 0x5020E, size: 0x8, addend: 0x0, symName: __ZNKSt3__115__hash_iteratorIPNS_11__hash_nodeINS_17__hash_value_typeINS_12basic_stringIcNS_11char_traitsIcEENS_9allocatorIcEEEES8_EEPvEEEptB8ue170006Ev, symObjAddr: 0x91A4, symBinAddr: 0x100015B58, symSize: 0x30 }
  - { offsetInCU: 0x10BCA, offset: 0x50233, size: 0x8, addend: 0x0, symName: __ZNSt3__112__hash_tableINS_17__hash_value_typeINS_12basic_stringIcNS_11char_traitsIcEENS_9allocatorIcEEEES7_EENS_22__unordered_map_hasherIS7_S8_NS_4hashIS7_EENS_8equal_toIS7_EELb1EEENS_21__unordered_map_equalIS7_S8_SD_SB_Lb1EEENS5_IS8_EEE21__construct_node_hashIRKNS_21piecewise_construct_tEJNS_5tupleIJOS7_EEENSN_IJEEEEEENS_10unique_ptrINS_11__hash_nodeIS8_PvEENS_22__hash_node_destructorINS5_ISU_EEEEEEmOT_DpOT0_, symObjAddr: 0x91D4, symBinAddr: 0x100015B88, symSize: 0x150 }
  - { offsetInCU: 0x10C67, offset: 0x502D0, size: 0x8, addend: 0x0, symName: __ZNSt3__116allocator_traitsINS_9allocatorINS_11__hash_nodeINS_17__hash_value_typeINS_12basic_stringIcNS_11char_traitsIcEENS1_IcEEEES8_EEPvEEEEE9constructB8ue170006INS_4pairIKS8_S8_EEJRKNS_21piecewise_construct_tENS_5tupleIJOS8_EEENSL_IJEEEEvEEvRSC_PT_DpOT0_, symObjAddr: 0x9324, symBinAddr: 0x100015CD8, symSize: 0x44 }
  - { offsetInCU: 0x10CEA, offset: 0x50353, size: 0x8, addend: 0x0, symName: __ZNSt3__19allocatorINS_11__hash_nodeINS_17__hash_value_typeINS_12basic_stringIcNS_11char_traitsIcEENS0_IcEEEES7_EEPvEEE9constructB8ue170006INS_4pairIKS7_S7_EEJRKNS_21piecewise_construct_tENS_5tupleIJOS7_EEENSJ_IJEEEEEEvPT_DpOT0_, symObjAddr: 0x9368, symBinAddr: 0x100015D1C, symSize: 0x44 }
  - { offsetInCU: 0x10D69, offset: 0x503D2, size: 0x8, addend: 0x0, symName: __ZNSt3__14pairIKNS_12basic_stringIcNS_11char_traitsIcEENS_9allocatorIcEEEES6_EC1B8ue170006IJOS6_EJEEENS_21piecewise_construct_tENS_5tupleIJDpT_EEENSC_IJDpT0_EEE, symObjAddr: 0x93AC, symBinAddr: 0x100015D60, symSize: 0x44 }
  - { offsetInCU: 0x10DD1, offset: 0x5043A, size: 0x8, addend: 0x0, symName: __ZNSt3__14pairIKNS_12basic_stringIcNS_11char_traitsIcEENS_9allocatorIcEEEES6_EC1B8ue170006IJOS6_EJEJLm0EEJEEENS_21piecewise_construct_tERNS_5tupleIJDpT_EEERNSC_IJDpT0_EEENS_15__tuple_indicesIJXspT1_EEEENSL_IJXspT2_EEEE, symObjAddr: 0x93F0, symBinAddr: 0x100015DA4, symSize: 0x3C }
  - { offsetInCU: 0x10E66, offset: 0x504CF, size: 0x8, addend: 0x0, symName: __ZNSt3__14pairIKNS_12basic_stringIcNS_11char_traitsIcEENS_9allocatorIcEEEES6_EC2B8ue170006IJOS6_EJEJLm0EEJEEENS_21piecewise_construct_tERNS_5tupleIJDpT_EEERNSC_IJDpT0_EEENS_15__tuple_indicesIJXspT1_EEEENSL_IJXspT2_EEEE, symObjAddr: 0x942C, symBinAddr: 0x100015DE0, symSize: 0x50 }
  - { offsetInCU: 0x10EFB, offset: 0x50564, size: 0x8, addend: 0x0, symName: __ZNSt3__112__tuple_leafILm0EONS_12basic_stringIcNS_11char_traitsIcEENS_9allocatorIcEEEELb0EE3getB8ue170006Ev, symObjAddr: 0x94A0, symBinAddr: 0x100015E54, symSize: 0x18 }
  - { offsetInCU: 0x10F20, offset: 0x50589, size: 0x8, addend: 0x0, symName: __ZNSt3__15tupleIJONS_12basic_stringIcNS_11char_traitsIcEENS_9allocatorIcEEEEEEC1B8ue170006IJS6_ELi0EEEDpOT_, symObjAddr: 0x94B8, symBinAddr: 0x100015E6C, symSize: 0x34 }
  - { offsetInCU: 0x10F6A, offset: 0x505D3, size: 0x8, addend: 0x0, symName: __ZNSt3__15tupleIJONS_12basic_stringIcNS_11char_traitsIcEENS_9allocatorIcEEEEEEC2B8ue170006IJS6_ELi0EEEDpOT_, symObjAddr: 0x94EC, symBinAddr: 0x100015EA0, symSize: 0x34 }
  - { offsetInCU: 0x10FB4, offset: 0x5061D, size: 0x8, addend: 0x0, symName: __ZNSt3__112__tuple_implINS_15__tuple_indicesIJLm0EEEEJONS_12basic_stringIcNS_11char_traitsIcEENS_9allocatorIcEEEEEEC1B8ue170006IJLm0EEJS9_EJEJEJS8_EEENS1_IJXspT_EEEENS_13__tuple_typesIJDpT0_EEENS1_IJXspT1_EEEENSD_IJDpT2_EEEDpOT3_, symObjAddr: 0x9520, symBinAddr: 0x100015ED4, symSize: 0x34 }
  - { offsetInCU: 0x1104F, offset: 0x506B8, size: 0x8, addend: 0x0, symName: __ZNSt3__112__tuple_implINS_15__tuple_indicesIJLm0EEEEJONS_12basic_stringIcNS_11char_traitsIcEENS_9allocatorIcEEEEEEC2B8ue170006IJLm0EEJS9_EJEJEJS8_EEENS1_IJXspT_EEEENS_13__tuple_typesIJDpT0_EEENS1_IJXspT1_EEEENSD_IJDpT2_EEEDpOT3_, symObjAddr: 0x9554, symBinAddr: 0x100015F08, symSize: 0x34 }
  - { offsetInCU: 0x110EA, offset: 0x50753, size: 0x8, addend: 0x0, symName: __ZNSt3__112__tuple_leafILm0EONS_12basic_stringIcNS_11char_traitsIcEENS_9allocatorIcEEEELb0EEC2B8ue170006IS6_vEEOT_, symObjAddr: 0x9588, symBinAddr: 0x100015F3C, symSize: 0x20 }
  - { offsetInCU: 0x1112C, offset: 0x50795, size: 0x8, addend: 0x0, symName: __ZNSt3__114pointer_traitsIPNS_17__hash_value_typeINS_12basic_stringIcNS_11char_traitsIcEENS_9allocatorIcEEEES7_EEE10pointer_toB8ue170006ERS8_, symObjAddr: 0x95A8, symBinAddr: 0x100015F5C, symSize: 0x14 }
  - { offsetInCU: 0x11159, offset: 0x507C2, size: 0x8, addend: 0x0, symName: __ZNSt3__116allocator_traitsINS_9allocatorIcEEE37select_on_container_copy_constructionB8ue170006IS2_vvEES2_RKS2_, symObjAddr: 0x9668, symBinAddr: 0x100015F70, symSize: 0x10 }
  - { offsetInCU: 0x11188, offset: 0x507F1, size: 0x8, addend: 0x0, symName: __ZNKSt3__112basic_stringIcNS_11char_traitsIcEENS_9allocatorIcEEE13get_allocatorB8ue170006Ev, symObjAddr: 0x9678, symBinAddr: 0x100015F80, symSize: 0x24 }
  - { offsetInCU: 0x111AD, offset: 0x50816, size: 0x8, addend: 0x0, symName: __ZNSt3__112basic_stringIcNS_11char_traitsIcEENS_9allocatorIcEEEC1B8ue170006ENS_24__uninitialized_size_tagEmRKS4_, symObjAddr: 0x969C, symBinAddr: 0x100015FA4, symSize: 0x3C }
  - { offsetInCU: 0x111FF, offset: 0x50868, size: 0x8, addend: 0x0, symName: __ZNSt3__111char_traitsIcE6assignB8ue170006EPcmc, symObjAddr: 0x96D8, symBinAddr: 0x100015FE0, symSize: 0x44 }
  - { offsetInCU: 0x1123E, offset: 0x508A7, size: 0x8, addend: 0x0, symName: __ZNSt3__111char_traitsIcE4copyB8ue170006EPcPKcm, symObjAddr: 0x971C, symBinAddr: 0x100016024, symSize: 0x40 }
  - { offsetInCU: 0x1127D, offset: 0x508E6, size: 0x8, addend: 0x0, symName: __ZNSt3__112basic_stringIcNS_11char_traitsIcEENS_9allocatorIcEEEC2B8ue170006ENS_24__uninitialized_size_tagEmRKS4_, symObjAddr: 0x97B8, symBinAddr: 0x100016064, symSize: 0x110 }
  - { offsetInCU: 0x112FC, offset: 0x50965, size: 0x8, addend: 0x0, symName: __ZNSt3__116allocator_traitsINS_9allocatorIcEEE8allocateB8ue170006ERS2_m, symObjAddr: 0x9A70, symBinAddr: 0x100016174, symSize: 0x2C }
  - { offsetInCU: 0x11352, offset: 0x509BB, size: 0x8, addend: 0x0, symName: __ZNKSt3__114__copy_trivialclB8ue170006IKccLi0EEENS_4pairIPT_PT0_EES5_S5_S7_, symObjAddr: 0x9F8C, symBinAddr: 0x10001647C, symSize: 0x48 }
  - { offsetInCU: 0x113D7, offset: 0x50A40, size: 0x8, addend: 0x0, symName: __ZNSt3__14pairIPKcS2_EC1B8ue170006IS2_S2_LPv0EEEOT_OT0_, symObjAddr: 0xA0F4, symBinAddr: 0x1000165E4, symSize: 0x3C }
  - { offsetInCU: 0x11434, offset: 0x50A9D, size: 0x8, addend: 0x0, symName: __ZNSt3__14pairIPKcS2_EC2B8ue170006IS2_S2_LPv0EEEOT_OT0_, symObjAddr: 0xA130, symBinAddr: 0x100016620, symSize: 0x34 }
  - { offsetInCU: 0x11492, offset: 0x50AFB, size: 0x8, addend: 0x0, symName: __ZNSt3__118__unwrap_iter_implIPKcLb1EE8__unwrapB8ue170006ES2_, symObjAddr: 0xA164, symBinAddr: 0x100016654, symSize: 0x24 }
  - { offsetInCU: 0x114BF, offset: 0x50B28, size: 0x8, addend: 0x0, symName: __ZNSt3__14pairIPKcPcEC1B8ue170006IRS2_S3_LPv0EEEOT_OT0_, symObjAddr: 0xA29C, symBinAddr: 0x10001678C, symSize: 0x3C }
  - { offsetInCU: 0x1151C, offset: 0x50B85, size: 0x8, addend: 0x0, symName: __ZNSt3__14pairIPKcPcEC2B8ue170006IRS2_S3_LPv0EEEOT_OT0_, symObjAddr: 0xA2D8, symBinAddr: 0x1000167C8, symSize: 0x34 }
  - { offsetInCU: 0x1157A, offset: 0x50BE3, size: 0x8, addend: 0x0, symName: __ZNSt3__118__unwrap_iter_implIPcLb1EE8__unwrapB8ue170006ES1_, symObjAddr: 0xA30C, symBinAddr: 0x1000167FC, symSize: 0x24 }
  - { offsetInCU: 0x1159D, offset: 0x50C06, size: 0x8, addend: 0x0, symName: __ZNSt3__14pairIPKcPcEC1B8ue170006IS2_S3_LPv0EEEOT_OT0_, symObjAddr: 0xA330, symBinAddr: 0x100016820, symSize: 0x3C }
  - { offsetInCU: 0x115FA, offset: 0x50C63, size: 0x8, addend: 0x0, symName: __ZNSt3__14pairIPKcPcEC2B8ue170006IS2_S3_LPv0EEEOT_OT0_, symObjAddr: 0xA36C, symBinAddr: 0x10001685C, symSize: 0x34 }
  - { offsetInCU: 0x11658, offset: 0x50CC1, size: 0x8, addend: 0x0, symName: __ZNSt3__118__unwrap_iter_implIPKcLb1EE8__rewrapB8ue170006ES2_S2_, symObjAddr: 0xA3DC, symBinAddr: 0x1000168CC, symSize: 0x48 }
  - { offsetInCU: 0x11689, offset: 0x50CF2, size: 0x8, addend: 0x0, symName: __ZNSt3__118__unwrap_iter_implIPcLb1EE8__rewrapB8ue170006ES1_S1_, symObjAddr: 0xA424, symBinAddr: 0x100016914, symSize: 0x48 }
  - { offsetInCU: 0x116BA, offset: 0x50D23, size: 0x8, addend: 0x0, symName: __ZNSt3__114pointer_traitsIPNS_4pairIKNS_12basic_stringIcNS_11char_traitsIcEENS_9allocatorIcEEEES7_EEE10pointer_toB8ue170006ERS9_, symObjAddr: 0xA46C, symBinAddr: 0x10001695C, symSize: 0x14 }
  - { offsetInCU: 0x116DD, offset: 0x50D46, size: 0x8, addend: 0x0, symName: __ZNSt3__110unique_ptrI7__sFILEPFiPS1_EEC2B8ue170006ILb1EvEES2_NS_16__dependent_typeINS_27__unique_ptr_deleter_sfinaeIS4_EEXT_EE20__good_rval_ref_typeE, symObjAddr: 0xA480, symBinAddr: 0x100016970, symSize: 0x48 }
  - { offsetInCU: 0x1172C, offset: 0x50D95, size: 0x8, addend: 0x0, symName: __ZNSt3__117__compressed_pairIP7__sFILEPFiS2_EEC1B8ue170006IRS2_S4_EEOT_OT0_, symObjAddr: 0xA4C8, symBinAddr: 0x1000169B8, symSize: 0x3C }
  - { offsetInCU: 0x11782, offset: 0x50DEB, size: 0x8, addend: 0x0, symName: __ZNSt3__117__compressed_pairIP7__sFILEPFiS2_EEC2B8ue170006IRS2_S4_EEOT_OT0_, symObjAddr: 0xA504, symBinAddr: 0x1000169F4, symSize: 0x48 }
  - { offsetInCU: 0x117D8, offset: 0x50E41, size: 0x8, addend: 0x0, symName: __ZNSt3__122__compressed_pair_elemIP7__sFILELi0ELb0EEC2B8ue170006IRS2_vEEOT_, symObjAddr: 0xA54C, symBinAddr: 0x100016A3C, symSize: 0x24 }
  - { offsetInCU: 0x11819, offset: 0x50E82, size: 0x8, addend: 0x0, symName: __ZNSt3__122__compressed_pair_elemIPFiP7__sFILEELi1ELb0EEC2B8ue170006IS4_vEEOT_, symObjAddr: 0xA570, symBinAddr: 0x100016A60, symSize: 0x24 }
  - { offsetInCU: 0x1185A, offset: 0x50EC3, size: 0x8, addend: 0x0, symName: __ZNSt3__110unique_ptrI7__sFILEPFiPS1_EED2B8ue170006Ev, symObjAddr: 0xA594, symBinAddr: 0x100016A84, symSize: 0x30 }
  - { offsetInCU: 0x11882, offset: 0x50EEB, size: 0x8, addend: 0x0, symName: __ZNSt3__110unique_ptrI7__sFILEPFiPS1_EE5resetB8ue170006ES2_, symObjAddr: 0xA5C4, symBinAddr: 0x100016AB4, symSize: 0x84 }
  - { offsetInCU: 0x118C5, offset: 0x50F2E, size: 0x8, addend: 0x0, symName: __ZNSt3__117__compressed_pairIP7__sFILEPFiS2_EE5firstB8ue170006Ev, symObjAddr: 0xA648, symBinAddr: 0x100016B38, symSize: 0x24 }
  - { offsetInCU: 0x118EA, offset: 0x50F53, size: 0x8, addend: 0x0, symName: __ZNSt3__117__compressed_pairIP7__sFILEPFiS2_EE6secondB8ue170006Ev, symObjAddr: 0xA66C, symBinAddr: 0x100016B5C, symSize: 0x28 }
  - { offsetInCU: 0x1190F, offset: 0x50F78, size: 0x8, addend: 0x0, symName: __ZNSt3__122__compressed_pair_elemIP7__sFILELi0ELb0EE5__getB8ue170006Ev, symObjAddr: 0xA694, symBinAddr: 0x100016B84, symSize: 0x14 }
  - { offsetInCU: 0x11934, offset: 0x50F9D, size: 0x8, addend: 0x0, symName: __ZNSt3__122__compressed_pair_elemIPFiP7__sFILEELi1ELb0EE5__getB8ue170006Ev, symObjAddr: 0xA6A8, symBinAddr: 0x100016B98, symSize: 0x14 }
  - { offsetInCU: 0x11959, offset: 0x50FC2, size: 0x8, addend: 0x0, symName: __ZNKSt3__117__compressed_pairIP7__sFILEPFiS2_EE5firstB8ue170006Ev, symObjAddr: 0xA6BC, symBinAddr: 0x100016BAC, symSize: 0x24 }
  - { offsetInCU: 0x1197E, offset: 0x50FE7, size: 0x8, addend: 0x0, symName: __ZNKSt3__122__compressed_pair_elemIP7__sFILELi0ELb0EE5__getB8ue170006Ev, symObjAddr: 0xA6E0, symBinAddr: 0x100016BD0, symSize: 0x14 }
  - { offsetInCU: 0xF04F, offset: 0x601F4, size: 0x8, addend: 0x0, symName: __ZNSt3__1neB8ue170006ERKNS_25__hash_map_const_iteratorINS_21__hash_const_iteratorIPNS_11__hash_nodeINS_17__hash_value_typeIj5StockEEPvEEEEEESC_, symObjAddr: 0x168, symBinAddr: 0x100016D4C, symSize: 0x30 }
  - { offsetInCU: 0xF08C, offset: 0x60231, size: 0x8, addend: 0x0, symName: __ZNSt3__1neB8ue170006IcNS_11char_traitsIcEENS_9allocatorIcEEEEbRKNS_12basic_stringIT_T0_T1_EESB_, symObjAddr: 0x11C0, symBinAddr: 0x1000179B0, symSize: 0x34 }
  - { offsetInCU: 0xF0E4, offset: 0x60289, size: 0x8, addend: 0x0, symName: __ZNSt3__1neB8ue170006IPNS_4pairIj5StockEEEEbRKNS_11__wrap_iterIT_EES9_, symObjAddr: 0x1488, symBinAddr: 0x100017C38, symSize: 0x34 }
  - { offsetInCU: 0xF127, offset: 0x602CC, size: 0x8, addend: 0x0, symName: __ZNSt3__1eqB8ue170006IPNS_4pairIj5StockEEEEbRKNS_11__wrap_iterIT_EES9_, symObjAddr: 0x1BA4, symBinAddr: 0x100017FC4, symSize: 0x48 }
  - { offsetInCU: 0xF16A, offset: 0x6030F, size: 0x8, addend: 0x0, symName: __ZNSt3__1neB8ue170006ERKNS_21__hash_const_iteratorIPNS_11__hash_nodeINS_17__hash_value_typeIj5StockEEPvEEEESA_, symObjAddr: 0x1F6C, symBinAddr: 0x100018228, symSize: 0x34 }
  - { offsetInCU: 0xF1A7, offset: 0x6034C, size: 0x8, addend: 0x0, symName: __ZNSt3__1eqB8ue170006ERKNS_21__hash_const_iteratorIPNS_11__hash_nodeINS_17__hash_value_typeIj5StockEEPvEEEESA_, symObjAddr: 0x1FA0, symBinAddr: 0x10001825C, symSize: 0x30 }
  - { offsetInCU: 0xF218, offset: 0x603BD, size: 0x8, addend: 0x0, symName: __ZNSt3__116forward_as_tupleB8ue170006IJRKjEEENS_5tupleIJDpOT_EEES6_, symObjAddr: 0x2BF4, symBinAddr: 0x1000187A8, symSize: 0x2C }
  - { offsetInCU: 0xF253, offset: 0x603F8, size: 0x8, addend: 0x0, symName: __ZNSt3__13getB8ue170006ILm0EJRKjEEERNS_13tuple_elementIXT_ENS_5tupleIJDpT0_EEEE4typeERS7_, symObjAddr: 0x35B4, symBinAddr: 0x100018C54, symSize: 0x24 }
  - { offsetInCU: 0xF2AF, offset: 0x60454, size: 0x8, addend: 0x0, symName: __ZNSt3__1eqB8ue170006I11__mbstate_tEEbRKNS_4fposIT_EES6_, symObjAddr: 0x53E4, symBinAddr: 0x1000193B0, symSize: 0x48 }
  - { offsetInCU: 0xF2F2, offset: 0x60497, size: 0x8, addend: 0x0, symName: __ZNSt3__122__make_exception_guardB8ue170006INS_6vectorINS_4pairIj5StockEENS_9allocatorIS4_EEE16__destroy_vectorEEENS_28__exception_guard_exceptionsIT_EESA_, symObjAddr: 0x5610, symBinAddr: 0x1000195DC, symSize: 0x40 }
  - { offsetInCU: 0xF327, offset: 0x604CC, size: 0x8, addend: 0x0, symName: __ZNSt3__119__allocate_at_leastB8ue170006INS_9allocatorINS_4pairIj5StockEEEEEENS_19__allocation_resultINS_16allocator_traitsIT_E7pointerEEERS8_m, symObjAddr: 0x5A04, symBinAddr: 0x1000199D0, symSize: 0x40 }
  - { offsetInCU: 0xF36A, offset: 0x6050F, size: 0x8, addend: 0x0, symName: __ZNSt3__112__to_addressB8ue170006INS_4pairIj5StockEEEEPT_S5_, symObjAddr: 0x5ED4, symBinAddr: 0x100019D20, symSize: 0x14 }
  - { offsetInCU: 0xF39F, offset: 0x60544, size: 0x8, addend: 0x0, symName: __ZNSt3__142__uninitialized_allocator_move_if_noexceptB8ue170006INS_9allocatorINS_4pairIj5StockEEEENS_16reverse_iteratorIPS4_EES8_S8_EET2_RT_T0_T1_S9_, symObjAddr: 0x6E44, symBinAddr: 0x10001ABBC, symSize: 0x12C }
  - { offsetInCU: 0xF43F, offset: 0x605E4, size: 0x8, addend: 0x0, symName: __ZNSt3__14swapB8ue170006IPNS_4pairIj5StockEEEENS_9enable_ifIXaasr21is_move_constructibleIT_EE5valuesr18is_move_assignableIS6_EE5valueEvE4typeERS6_S9_, symObjAddr: 0x6FBC, symBinAddr: 0x10001AD34, symSize: 0x3C }
  - { offsetInCU: 0xF490, offset: 0x60635, size: 0x8, addend: 0x0, symName: __ZNSt3__122__make_exception_guardB8ue170006INS_29_AllocatorDestroyRangeReverseINS_9allocatorINS_4pairIj5StockEEEENS_16reverse_iteratorIPS5_EEEEEENS_28__exception_guard_exceptionsIT_EESC_, symObjAddr: 0x6FF8, symBinAddr: 0x10001AD70, symSize: 0x4C }
  - { offsetInCU: 0xF4C6, offset: 0x6066B, size: 0x8, addend: 0x0, symName: __ZNSt3__1neB8ue170006IPNS_4pairIj5StockEES4_EEbRKNS_16reverse_iteratorIT_EERKNS5_IT0_EE, symObjAddr: 0x7088, symBinAddr: 0x10001AE00, symSize: 0x48 }
  - { offsetInCU: 0xF512, offset: 0x606B7, size: 0x8, addend: 0x0, symName: __ZNSt3__112__to_addressB8ue170006INS_16reverse_iteratorIPNS_4pairIj5StockEEEEvEEu7__decayIDTclsr19__to_address_helperIT_EE6__callclsr3stdE7declvalIRKS7_EEEEES9_, symObjAddr: 0x70D0, symBinAddr: 0x10001AE48, symSize: 0x24 }
  - { offsetInCU: 0xF572, offset: 0x60717, size: 0x8, addend: 0x0, symName: __ZNSt3__119__allocator_destroyB8ue170006INS_9allocatorINS_4pairIj5StockEEEENS_16reverse_iteratorINS6_IPS4_EEEES9_EEvRT_T0_T1_, symObjAddr: 0x7380, symBinAddr: 0x10001B0F8, symSize: 0x70 }
  - { offsetInCU: 0xF5D8, offset: 0x6077D, size: 0x8, addend: 0x0, symName: __ZNSt3__1neB8ue170006INS_16reverse_iteratorIPNS_4pairIj5StockEEEES6_EEbRKNS1_IT_EERKNS1_IT0_EE, symObjAddr: 0x742C, symBinAddr: 0x10001B1A4, symSize: 0x60 }
  - { offsetInCU: 0xF624, offset: 0x607C9, size: 0x8, addend: 0x0, symName: __ZNSt3__112__to_addressB8ue170006INS_16reverse_iteratorINS1_IPNS_4pairIj5StockEEEEEEvEEu7__decayIDTclsr19__to_address_helperIT_EE6__callclsr3stdE7declvalIRKS8_EEEEESA_, symObjAddr: 0x748C, symBinAddr: 0x10001B204, symSize: 0x24 }
  - { offsetInCU: 0x10273, offset: 0x61418, size: 0x8, addend: 0x0, symName: __ZNSt3__16vectorINS_4pairIj5StockEENS_9allocatorIS3_EEE26__swap_out_circular_bufferERNS_14__split_bufferIS3_RS5_EE, symObjAddr: 0x6AD0, symBinAddr: 0x10001A848, symSize: 0x110 }
  - { offsetInCU: 0x1237C, offset: 0x63521, size: 0x8, addend: 0x0, symName: __ZNK9Portfolio15totalStockValueEv, symObjAddr: 0x0, symBinAddr: 0x100016BE4, symSize: 0xF8 }
  - { offsetInCU: 0x123F2, offset: 0x63597, size: 0x8, addend: 0x0, symName: __ZNKSt3__113unordered_mapIj5StockNS_4hashIjEENS_8equal_toIjEENS_9allocatorINS_4pairIKjS1_EEEEE5beginB8ue170006Ev, symObjAddr: 0xF8, symBinAddr: 0x100016CDC, symSize: 0x38 }
  - { offsetInCU: 0x12417, offset: 0x635BC, size: 0x8, addend: 0x0, symName: __ZNKSt3__113unordered_mapIj5StockNS_4hashIjEENS_8equal_toIjEENS_9allocatorINS_4pairIKjS1_EEEEE3endB8ue170006Ev, symObjAddr: 0x130, symBinAddr: 0x100016D14, symSize: 0x38 }
  - { offsetInCU: 0x1243C, offset: 0x635E1, size: 0x8, addend: 0x0, symName: __ZNKSt3__125__hash_map_const_iteratorINS_21__hash_const_iteratorIPNS_11__hash_nodeINS_17__hash_value_typeIj5StockEEPvEEEEEdeB8ue170006Ev, symObjAddr: 0x198, symBinAddr: 0x100016D7C, symSize: 0x28 }
  - { offsetInCU: 0x12461, offset: 0x63606, size: 0x8, addend: 0x0, symName: __ZNSt3__14pairIKj5StockEC1B8ue170006ERKS3_, symObjAddr: 0x1C0, symBinAddr: 0x100016DA4, symSize: 0x34 }
  - { offsetInCU: 0x12494, offset: 0x63639, size: 0x8, addend: 0x0, symName: __ZNSt3__125__hash_map_const_iteratorINS_21__hash_const_iteratorIPNS_11__hash_nodeINS_17__hash_value_typeIj5StockEEPvEEEEEppB8ue170006Ev, symObjAddr: 0x220, symBinAddr: 0x100016DD8, symSize: 0x2C }
  - { offsetInCU: 0x124B9, offset: 0x6365E, size: 0x8, addend: 0x0, symName: __ZN9Portfolio8addStockER5Stock, symObjAddr: 0x24C, symBinAddr: 0x100016E04, symSize: 0xE8 }
  - { offsetInCU: 0x124EE, offset: 0x63693, size: 0x8, addend: 0x0, symName: __ZNSt3__113unordered_mapIj5StockNS_4hashIjEENS_8equal_toIjEENS_9allocatorINS_4pairIKjS1_EEEEEixERS8_, symObjAddr: 0x3DC, symBinAddr: 0x100016EEC, symSize: 0x80 }
  - { offsetInCU: 0x1252D, offset: 0x636D2, size: 0x8, addend: 0x0, symName: __ZN5StockaSERKS_, symObjAddr: 0x45C, symBinAddr: 0x100016F6C, symSize: 0x50 }
  - { offsetInCU: 0x1255D, offset: 0x63702, size: 0x8, addend: 0x0, symName: __ZN9Portfolio4loadENSt3__112basic_stringIcNS0_11char_traitsIcEENS0_9allocatorIcEEEE, symObjAddr: 0x4AC, symBinAddr: 0x100016FBC, symSize: 0x158 }
  - { offsetInCU: 0x125A4, offset: 0x63749, size: 0x8, addend: 0x0, symName: __ZN9Portfolio8loadDataERNSt3__114basic_ifstreamIcNS0_11char_traitsIcEEEE, symObjAddr: 0x7E4, symBinAddr: 0x100017114, symSize: 0x98 }
  - { offsetInCU: 0x125E7, offset: 0x6378C, size: 0x8, addend: 0x0, symName: __ZN9Portfolio13loadStockDataERNSt3__114basic_ifstreamIcNS0_11char_traitsIcEEEE, symObjAddr: 0x87C, symBinAddr: 0x1000171AC, symSize: 0x1AC }
  - { offsetInCU: 0x1268F, offset: 0x63834, size: 0x8, addend: 0x0, symName: __Z15verifyPortfolioR9Portfolio, symObjAddr: 0xA80, symBinAddr: 0x100017358, symSize: 0x9C }
  - { offsetInCU: 0x126BC, offset: 0x63861, size: 0x8, addend: 0x0, symName: __ZN9Portfolio4saveEv, symObjAddr: 0xB5C, symBinAddr: 0x1000173F4, symSize: 0x1E0 }
  - { offsetInCU: 0x12716, offset: 0x638BB, size: 0x8, addend: 0x0, symName: __ZNSt3__114basic_ofstreamIcNS_11char_traitsIcEEEC1EPKcj, symObjAddr: 0xD60, symBinAddr: 0x1000175D4, symSize: 0x16C }
  - { offsetInCU: 0x1275E, offset: 0x63903, size: 0x8, addend: 0x0, symName: __ZN9Portfolio8saveDataERNSt3__114basic_ofstreamIcNS0_11char_traitsIcEEEE, symObjAddr: 0xEF8, symBinAddr: 0x100017740, symSize: 0x98 }
  - { offsetInCU: 0x127A1, offset: 0x63946, size: 0x8, addend: 0x0, symName: __ZN9Portfolio13saveStockDataERNSt3__114basic_ofstreamIcNS0_11char_traitsIcEEEE, symObjAddr: 0xF90, symBinAddr: 0x1000177D8, symSize: 0x1D8 }
  - { offsetInCU: 0x12857, offset: 0x639FC, size: 0x8, addend: 0x0, symName: __ZNSt3__14fposI11__mbstate_tEC1B8ue170006Ex, symObjAddr: 0x1234, symBinAddr: 0x1000179E4, symSize: 0x34 }
  - { offsetInCU: 0x1288D, offset: 0x63A32, size: 0x8, addend: 0x0, symName: __ZNSt3__113basic_ostreamIcNS_11char_traitsIcEEE5seekpENS_4fposI11__mbstate_tEE, symObjAddr: 0x1268, symBinAddr: 0x100017A18, symSize: 0x160 }
  - { offsetInCU: 0x128D5, offset: 0x63A7A, size: 0x8, addend: 0x0, symName: __ZNSt3__16vectorINS_4pairIj5StockEENS_9allocatorIS3_EEEC1Em, symObjAddr: 0x13C8, symBinAddr: 0x100017B78, symSize: 0x34 }
  - { offsetInCU: 0x1290E, offset: 0x63AB3, size: 0x8, addend: 0x0, symName: __ZNSt3__16vectorINS_4pairIj5StockEENS_9allocatorIS3_EEEixB8ue170006Em, symObjAddr: 0x13FC, symBinAddr: 0x100017BAC, symSize: 0x2C }
  - { offsetInCU: 0x12944, offset: 0x63AE9, size: 0x8, addend: 0x0, symName: __ZNSt3__16vectorINS_4pairIj5StockEENS_9allocatorIS3_EEE5beginB8ue170006Ev, symObjAddr: 0x1428, symBinAddr: 0x100017BD8, symSize: 0x30 }
  - { offsetInCU: 0x1296A, offset: 0x63B0F, size: 0x8, addend: 0x0, symName: __ZNSt3__16vectorINS_4pairIj5StockEENS_9allocatorIS3_EEE3endB8ue170006Ev, symObjAddr: 0x1458, symBinAddr: 0x100017C08, symSize: 0x30 }
  - { offsetInCU: 0x12990, offset: 0x63B35, size: 0x8, addend: 0x0, symName: __ZNKSt3__111__wrap_iterIPNS_4pairIj5StockEEEdeB8ue170006Ev, symObjAddr: 0x14BC, symBinAddr: 0x100017C6C, symSize: 0x18 }
  - { offsetInCU: 0x129B5, offset: 0x63B5A, size: 0x8, addend: 0x0, symName: __ZNSt3__14pairIj5StockEC1B8ue170006ERKS2_, symObjAddr: 0x14D4, symBinAddr: 0x100017C84, symSize: 0x34 }
  - { offsetInCU: 0x129E8, offset: 0x63B8D, size: 0x8, addend: 0x0, symName: __ZNSt3__14pairIj5StockED1Ev, symObjAddr: 0x1508, symBinAddr: 0x100017CB8, symSize: 0x2C }
  - { offsetInCU: 0x12A13, offset: 0x63BB8, size: 0x8, addend: 0x0, symName: __ZNSt3__111__wrap_iterIPNS_4pairIj5StockEEEppB8ue170006Ev, symObjAddr: 0x1534, symBinAddr: 0x100017CE4, symSize: 0x20 }
  - { offsetInCU: 0x12A38, offset: 0x63BDD, size: 0x8, addend: 0x0, symName: __ZNSt3__16vectorINS_4pairIj5StockEENS_9allocatorIS3_EEED1B8ue170006Ev, symObjAddr: 0x1554, symBinAddr: 0x100017D04, symSize: 0x2C }
  - { offsetInCU: 0x12A60, offset: 0x63C05, size: 0x8, addend: 0x0, symName: __ZNKSt3__113unordered_mapIj5StockNS_4hashIjEENS_8equal_toIjEENS_9allocatorINS_4pairIKjS1_EEEEE4sizeB8ue170006Ev, symObjAddr: 0x1580, symBinAddr: 0x100017D30, symSize: 0x24 }
  - { offsetInCU: 0x12A85, offset: 0x63C2A, size: 0x8, addend: 0x0, symName: __ZNSt3__16vectorINS_4pairIj5StockEENS_9allocatorIS3_EEEC1B8ue170006Ev, symObjAddr: 0x15A4, symBinAddr: 0x100017D54, symSize: 0x2C }
  - { offsetInCU: 0x12AAD, offset: 0x63C52, size: 0x8, addend: 0x0, symName: __ZNSt3__16vectorINS_4pairIj5StockEENS_9allocatorIS3_EEE9push_backB8ue170006EOS3_, symObjAddr: 0x1630, symBinAddr: 0x100017D80, symSize: 0x6C }
  - { offsetInCU: 0x12AE2, offset: 0x63C87, size: 0x8, addend: 0x0, symName: __ZNSt3__14pairIj5StockEC1B8ue170006IKjS1_LPv0EEERKNS0_IT_T0_EE, symObjAddr: 0x169C, symBinAddr: 0x100017DEC, symSize: 0x34 }
  - { offsetInCU: 0x12B31, offset: 0x63CD6, size: 0x8, addend: 0x0, symName: __ZNSt3__14pairIKj5StockEC2B8ue170006ERKS3_, symObjAddr: 0x177C, symBinAddr: 0x100017E20, symSize: 0x48 }
  - { offsetInCU: 0x12B64, offset: 0x63D09, size: 0x8, addend: 0x0, symName: __ZN5StockC1ERKS_, symObjAddr: 0x17C4, symBinAddr: 0x100017E68, symSize: 0x34 }
  - { offsetInCU: 0x12B98, offset: 0x63D3D, size: 0x8, addend: 0x0, symName: __ZN5StockC2ERKS_, symObjAddr: 0x17F8, symBinAddr: 0x100017E9C, symSize: 0x50 }
  - { offsetInCU: 0x12BD6, offset: 0x63D7B, size: 0x8, addend: 0x0, symName: __ZN9StockData14DailyOpenCloseC1ERKS0_, symObjAddr: 0x1848, symBinAddr: 0x100017EEC, symSize: 0x34 }
  - { offsetInCU: 0x12C0A, offset: 0x63DAF, size: 0x8, addend: 0x0, symName: __ZN9StockData14DailyOpenCloseC2ERKS0_, symObjAddr: 0x187C, symBinAddr: 0x100017F20, symSize: 0xA4 }
  - { offsetInCU: 0x12C43, offset: 0x63DE8, size: 0x8, addend: 0x0, symName: __ZNKSt3__111__wrap_iterIPNS_4pairIj5StockEEE4baseB8ue170006Ev, symObjAddr: 0x1BEC, symBinAddr: 0x10001800C, symSize: 0x18 }
  - { offsetInCU: 0x12C68, offset: 0x63E0D, size: 0x8, addend: 0x0, symName: __ZNSt3__14pairIj5StockEC2B8ue170006ERKS2_, symObjAddr: 0x1C04, symBinAddr: 0x100018024, symSize: 0x48 }
  - { offsetInCU: 0x12C9B, offset: 0x63E40, size: 0x8, addend: 0x0, symName: __ZNSt3__14pairIj5StockED2Ev, symObjAddr: 0x1C4C, symBinAddr: 0x10001806C, symSize: 0x30 }
  - { offsetInCU: 0x12CC6, offset: 0x63E6B, size: 0x8, addend: 0x0, symName: __ZNSt3__14pairIj5StockEC2B8ue170006IKjS1_LPv0EEERKNS0_IT_T0_EE, symObjAddr: 0x1C7C, symBinAddr: 0x10001809C, symSize: 0x48 }
  - { offsetInCU: 0x12D15, offset: 0x63EBA, size: 0x8, addend: 0x0, symName: __ZNKSt3__112__hash_tableINS_17__hash_value_typeIj5StockEENS_22__unordered_map_hasherIjS3_NS_4hashIjEENS_8equal_toIjEELb1EEENS_21__unordered_map_equalIjS3_S8_S6_Lb1EEENS_9allocatorIS3_EEE5beginEv, symObjAddr: 0x1E28, symBinAddr: 0x1000180E4, symSize: 0x38 }
  - { offsetInCU: 0x12D3B, offset: 0x63EE0, size: 0x8, addend: 0x0, symName: __ZNSt3__125__hash_map_const_iteratorINS_21__hash_const_iteratorIPNS_11__hash_nodeINS_17__hash_value_typeIj5StockEEPvEEEEEC1B8ue170006ES9_, symObjAddr: 0x1E60, symBinAddr: 0x10001811C, symSize: 0x34 }
  - { offsetInCU: 0x12D72, offset: 0x63F17, size: 0x8, addend: 0x0, symName: __ZNKSt3__117__compressed_pairINS_16__hash_node_baseIPNS_11__hash_nodeINS_17__hash_value_typeIj5StockEEPvEEEENS_9allocatorIS7_EEE5firstB8ue170006Ev, symObjAddr: 0x1E94, symBinAddr: 0x100018150, symSize: 0x24 }
  - { offsetInCU: 0x12D97, offset: 0x63F3C, size: 0x8, addend: 0x0, symName: __ZNSt3__121__hash_const_iteratorIPNS_11__hash_nodeINS_17__hash_value_typeIj5StockEEPvEEEC1B8ue170006EPNS_16__hash_node_baseIS7_EE, symObjAddr: 0x1EB8, symBinAddr: 0x100018174, symSize: 0x34 }
  - { offsetInCU: 0x12DCE, offset: 0x63F73, size: 0x8, addend: 0x0, symName: __ZNKSt3__122__compressed_pair_elemINS_16__hash_node_baseIPNS_11__hash_nodeINS_17__hash_value_typeIj5StockEEPvEEEELi0ELb0EE5__getB8ue170006Ev, symObjAddr: 0x1EEC, symBinAddr: 0x1000181A8, symSize: 0x14 }
  - { offsetInCU: 0x12DF3, offset: 0x63F98, size: 0x8, addend: 0x0, symName: __ZNSt3__121__hash_const_iteratorIPNS_11__hash_nodeINS_17__hash_value_typeIj5StockEEPvEEEC2B8ue170006EPNS_16__hash_node_baseIS7_EE, symObjAddr: 0x1F00, symBinAddr: 0x1000181BC, symSize: 0x20 }
  - { offsetInCU: 0x12E2B, offset: 0x63FD0, size: 0x8, addend: 0x0, symName: __ZNSt3__125__hash_map_const_iteratorINS_21__hash_const_iteratorIPNS_11__hash_nodeINS_17__hash_value_typeIj5StockEEPvEEEEEC2B8ue170006ES9_, symObjAddr: 0x1F20, symBinAddr: 0x1000181DC, symSize: 0x20 }
  - { offsetInCU: 0x12E63, offset: 0x64008, size: 0x8, addend: 0x0, symName: __ZNKSt3__112__hash_tableINS_17__hash_value_typeIj5StockEENS_22__unordered_map_hasherIjS3_NS_4hashIjEENS_8equal_toIjEELb1EEENS_21__unordered_map_equalIjS3_S8_S6_Lb1EEENS_9allocatorIS3_EEE3endEv, symObjAddr: 0x1F40, symBinAddr: 0x1000181FC, symSize: 0x2C }
  - { offsetInCU: 0x12E89, offset: 0x6402E, size: 0x8, addend: 0x0, symName: __ZNSt3__121__hash_const_iteratorIPNS_11__hash_nodeINS_17__hash_value_typeIj5StockEEPvEEEppB8ue170006Ev, symObjAddr: 0x1FD0, symBinAddr: 0x10001828C, symSize: 0x20 }
  - { offsetInCU: 0x12EAE, offset: 0x64053, size: 0x8, addend: 0x0, symName: __ZNKSt3__121__hash_const_iteratorIPNS_11__hash_nodeINS_17__hash_value_typeIj5StockEEPvEEEptB8ue170006Ev, symObjAddr: 0x1FF0, symBinAddr: 0x1000182AC, symSize: 0x30 }
  - { offsetInCU: 0x12ED3, offset: 0x64078, size: 0x8, addend: 0x0, symName: __ZNSt3__114pointer_traitsIPKNS_17__hash_value_typeIj5StockEEE10pointer_toB8ue170006ERS4_, symObjAddr: 0x2044, symBinAddr: 0x1000182DC, symSize: 0x14 }
  - { offsetInCU: 0x12F05, offset: 0x640AA, size: 0x8, addend: 0x0, symName: __ZNSt3__112__hash_tableINS_17__hash_value_typeIj5StockEENS_22__unordered_map_hasherIjS3_NS_4hashIjEENS_8equal_toIjEELb1EEENS_21__unordered_map_equalIjS3_S8_S6_Lb1EEENS_9allocatorIS3_EEE25__emplace_unique_key_argsIjJRKNS_21piecewise_construct_tENS_5tupleIJRKjEEENSJ_IJEEEEEENS_4pairINS_15__hash_iteratorIPNS_11__hash_nodeIS3_PvEEEEbEERKT_DpOT0_, symObjAddr: 0x273C, symBinAddr: 0x1000182F0, symSize: 0x4B8 }
  - { offsetInCU: 0x13011, offset: 0x641B6, size: 0x8, addend: 0x0, symName: __ZNSt3__112__hash_tableINS_17__hash_value_typeIj5StockEENS_22__unordered_map_hasherIjS3_NS_4hashIjEENS_8equal_toIjEELb1EEENS_21__unordered_map_equalIjS3_S8_S6_Lb1EEENS_9allocatorIS3_EEE21__construct_node_hashIRKNS_21piecewise_construct_tEJNS_5tupleIJRKjEEENSJ_IJEEEEEENS_10unique_ptrINS_11__hash_nodeIS3_PvEENS_22__hash_node_destructorINSC_ISR_EEEEEEmOT_DpOT0_, symObjAddr: 0x2C78, symBinAddr: 0x1000187D4, symSize: 0x150 }
  - { offsetInCU: 0x130AE, offset: 0x64253, size: 0x8, addend: 0x0, symName: __ZNSt3__112__hash_tableINS_17__hash_value_typeIj5StockEENS_22__unordered_map_hasherIjS3_NS_4hashIjEENS_8equal_toIjEELb1EEENS_21__unordered_map_equalIjS3_S8_S6_Lb1EEENS_9allocatorIS3_EEE15__rehash_uniqueB8ue170006Em, symObjAddr: 0x2E18, symBinAddr: 0x100018924, symSize: 0x2C }
  - { offsetInCU: 0x130E2, offset: 0x64287, size: 0x8, addend: 0x0, symName: __ZNKSt3__110unique_ptrINS_11__hash_nodeINS_17__hash_value_typeIj5StockEEPvEENS_22__hash_node_destructorINS_9allocatorIS6_EEEEEptB8ue170006Ev, symObjAddr: 0x2F20, symBinAddr: 0x100018950, symSize: 0x28 }
  - { offsetInCU: 0x13107, offset: 0x642AC, size: 0x8, addend: 0x0, symName: __ZNKSt3__110unique_ptrINS_11__hash_nodeINS_17__hash_value_typeIj5StockEEPvEENS_22__hash_node_destructorINS_9allocatorIS6_EEEEE3getB8ue170006Ev, symObjAddr: 0x2F48, symBinAddr: 0x100018978, symSize: 0x28 }
  - { offsetInCU: 0x1312C, offset: 0x642D1, size: 0x8, addend: 0x0, symName: __ZNSt3__110unique_ptrINS_11__hash_nodeINS_17__hash_value_typeIj5StockEEPvEENS_22__hash_node_destructorINS_9allocatorIS6_EEEEE7releaseB8ue170006Ev, symObjAddr: 0x2F70, symBinAddr: 0x1000189A0, symSize: 0x44 }
  - { offsetInCU: 0x13165, offset: 0x6430A, size: 0x8, addend: 0x0, symName: __ZNSt3__14pairINS_15__hash_iteratorIPNS_11__hash_nodeINS_17__hash_value_typeIj5StockEEPvEEEEbEC1B8ue170006IS9_RbLS6_0EEEOT_OT0_, symObjAddr: 0x2FE0, symBinAddr: 0x1000189E4, symSize: 0x3C }
  - { offsetInCU: 0x131C2, offset: 0x64367, size: 0x8, addend: 0x0, symName: __ZNSt3__116allocator_traitsINS_9allocatorINS_11__hash_nodeINS_17__hash_value_typeIj5StockEEPvEEEEE8allocateB8ue170006ERS8_m, symObjAddr: 0x3044, symBinAddr: 0x100018A20, symSize: 0x2C }
  - { offsetInCU: 0x131F5, offset: 0x6439A, size: 0x8, addend: 0x0, symName: __ZNSt3__116allocator_traitsINS_9allocatorINS_11__hash_nodeINS_17__hash_value_typeIj5StockEEPvEEEEE9constructB8ue170006INS_4pairIKjS4_EEJRKNS_21piecewise_construct_tENS_5tupleIJRSC_EEENSH_IJEEEEvEEvRS8_PT_DpOT0_, symObjAddr: 0x30F4, symBinAddr: 0x100018A4C, symSize: 0x44 }
  - { offsetInCU: 0x13278, offset: 0x6441D, size: 0x8, addend: 0x0, symName: __ZNSt3__110unique_ptrINS_11__hash_nodeINS_17__hash_value_typeIj5StockEEPvEENS_22__hash_node_destructorINS_9allocatorIS6_EEEEE11get_deleterB8ue170006Ev, symObjAddr: 0x315C, symBinAddr: 0x100018A90, symSize: 0x24 }
  - { offsetInCU: 0x1329D, offset: 0x64442, size: 0x8, addend: 0x0, symName: __ZNSt3__19allocatorINS_11__hash_nodeINS_17__hash_value_typeIj5StockEEPvEEE8allocateB8ue170006Em, symObjAddr: 0x31B8, symBinAddr: 0x100018AB4, symSize: 0x5C }
  - { offsetInCU: 0x132DA, offset: 0x6447F, size: 0x8, addend: 0x0, symName: __ZNSt3__116allocator_traitsINS_9allocatorINS_11__hash_nodeINS_17__hash_value_typeIj5StockEEPvEEEEE8max_sizeB8ue170006IS8_vEEmRKS8_, symObjAddr: 0x3214, symBinAddr: 0x100018B10, symSize: 0x24 }
  - { offsetInCU: 0x13308, offset: 0x644AD, size: 0x8, addend: 0x0, symName: __ZNKSt3__19allocatorINS_11__hash_nodeINS_17__hash_value_typeIj5StockEEPvEEE8max_sizeB8ue170006Ev, symObjAddr: 0x32CC, symBinAddr: 0x100018B34, symSize: 0x18 }
  - { offsetInCU: 0x1332D, offset: 0x644D2, size: 0x8, addend: 0x0, symName: __ZNSt3__19allocatorINS_11__hash_nodeINS_17__hash_value_typeIj5StockEEPvEEE9constructB8ue170006INS_4pairIKjS3_EEJRKNS_21piecewise_construct_tENS_5tupleIJRSA_EEENSF_IJEEEEEEvPT_DpOT0_, symObjAddr: 0x34AC, symBinAddr: 0x100018B4C, symSize: 0x44 }
  - { offsetInCU: 0x133AC, offset: 0x64551, size: 0x8, addend: 0x0, symName: __ZNSt3__14pairIKj5StockEC1B8ue170006IJRS1_EJEEENS_21piecewise_construct_tENS_5tupleIJDpT_EEENS7_IJDpT0_EEE, symObjAddr: 0x34F0, symBinAddr: 0x100018B90, symSize: 0x3C }
  - { offsetInCU: 0x13414, offset: 0x645B9, size: 0x8, addend: 0x0, symName: __ZNSt3__14pairIKj5StockEC1B8ue170006IJRS1_EJEJLm0EEJEEENS_21piecewise_construct_tERNS_5tupleIJDpT_EEERNS7_IJDpT0_EEENS_15__tuple_indicesIJXspT1_EEEENSG_IJXspT2_EEEE, symObjAddr: 0x352C, symBinAddr: 0x100018BCC, symSize: 0x3C }
  - { offsetInCU: 0x134A9, offset: 0x6464E, size: 0x8, addend: 0x0, symName: __ZNSt3__14pairIKj5StockEC2B8ue170006IJRS1_EJEJLm0EEJEEENS_21piecewise_construct_tERNS_5tupleIJDpT_EEERNS7_IJDpT0_EEENS_15__tuple_indicesIJXspT1_EEEENSG_IJXspT2_EEEE, symObjAddr: 0x3568, symBinAddr: 0x100018C08, symSize: 0x4C }
  - { offsetInCU: 0x1353E, offset: 0x646E3, size: 0x8, addend: 0x0, symName: __ZN5StockC1Ev, symObjAddr: 0x35D8, symBinAddr: 0x100018C78, symSize: 0x2C }
  - { offsetInCU: 0x13566, offset: 0x6470B, size: 0x8, addend: 0x0, symName: __ZNSt3__112__tuple_leafILm0ERKjLb0EE3getB8ue170006Ev, symObjAddr: 0x3604, symBinAddr: 0x100018CA4, symSize: 0x18 }
  - { offsetInCU: 0x1358B, offset: 0x64730, size: 0x8, addend: 0x0, symName: __ZN5StockC2Ev, symObjAddr: 0x361C, symBinAddr: 0x100018CBC, symSize: 0x40 }
  - { offsetInCU: 0x135B8, offset: 0x6475D, size: 0x8, addend: 0x0, symName: __ZNSt3__112__hash_tableINS_17__hash_value_typeIj5StockEENS_22__unordered_map_hasherIjS3_NS_4hashIjEENS_8equal_toIjEELb1EEENS_21__unordered_map_equalIjS3_S8_S6_Lb1EEENS_9allocatorIS3_EEE8__rehashILb1EEEvm, symObjAddr: 0x3954, symBinAddr: 0x100018CFC, symSize: 0x1A8 }
  - { offsetInCU: 0x13606, offset: 0x647AB, size: 0x8, addend: 0x0, symName: __ZNSt3__112__hash_tableINS_17__hash_value_typeIj5StockEENS_22__unordered_map_hasherIjS3_NS_4hashIjEENS_8equal_toIjEELb1EEENS_21__unordered_map_equalIjS3_S8_S6_Lb1EEENS_9allocatorIS3_EEE11__do_rehashILb1EEEvm, symObjAddr: 0x3AFC, symBinAddr: 0x100018EA4, symSize: 0x288 }
  - { offsetInCU: 0x136EB, offset: 0x64890, size: 0x8, addend: 0x0, symName: __ZNSt3__116allocator_traitsINS_9allocatorIPNS_16__hash_node_baseIPNS_11__hash_nodeINS_17__hash_value_typeIj5StockEEPvEEEEEEE8allocateB8ue170006ERSC_m, symObjAddr: 0x3EB0, symBinAddr: 0x10001912C, symSize: 0x2C }
  - { offsetInCU: 0x1371E, offset: 0x648C3, size: 0x8, addend: 0x0, symName: __ZNSt3__19allocatorIPNS_16__hash_node_baseIPNS_11__hash_nodeINS_17__hash_value_typeIj5StockEEPvEEEEE8allocateB8ue170006Em, symObjAddr: 0x4180, symBinAddr: 0x100019158, symSize: 0x58 }
  - { offsetInCU: 0x1375B, offset: 0x64900, size: 0x8, addend: 0x0, symName: __ZNSt3__116allocator_traitsINS_9allocatorIPNS_16__hash_node_baseIPNS_11__hash_nodeINS_17__hash_value_typeIj5StockEEPvEEEEEEE8max_sizeB8ue170006ISC_vEEmRKSC_, symObjAddr: 0x41D8, symBinAddr: 0x1000191B0, symSize: 0x24 }
  - { offsetInCU: 0x13789, offset: 0x6492E, size: 0x8, addend: 0x0, symName: __ZNKSt3__19allocatorIPNS_16__hash_node_baseIPNS_11__hash_nodeINS_17__hash_value_typeIj5StockEEPvEEEEE8max_sizeB8ue170006Ev, symObjAddr: 0x41FC, symBinAddr: 0x1000191D4, symSize: 0x14 }
  - { offsetInCU: 0x137AE, offset: 0x64953, size: 0x8, addend: 0x0, symName: __ZNKSt3__117__compressed_pairIPNS_11__hash_nodeINS_17__hash_value_typeIj5StockEEPvEENS_22__hash_node_destructorINS_9allocatorIS6_EEEEE5firstB8ue170006Ev, symObjAddr: 0x42EC, symBinAddr: 0x1000191E8, symSize: 0x24 }
  - { offsetInCU: 0x137D3, offset: 0x64978, size: 0x8, addend: 0x0, symName: __ZNKSt3__122__compressed_pair_elemIPNS_11__hash_nodeINS_17__hash_value_typeIj5StockEEPvEELi0ELb0EE5__getB8ue170006Ev, symObjAddr: 0x4310, symBinAddr: 0x10001920C, symSize: 0x14 }
  - { offsetInCU: 0x137F8, offset: 0x6499D, size: 0x8, addend: 0x0, symName: __ZNSt3__14pairINS_15__hash_iteratorIPNS_11__hash_nodeINS_17__hash_value_typeIj5StockEEPvEEEEbEC2B8ue170006IS9_RbLS6_0EEEOT_OT0_, symObjAddr: 0x453C, symBinAddr: 0x100019220, symSize: 0x38 }
  - { offsetInCU: 0x13856, offset: 0x649FB, size: 0x8, addend: 0x0, symName: __ZNSt3__15tupleIJRKjEEC1B8ue170006INS_4_AndELi0EEES2_, symObjAddr: 0x4574, symBinAddr: 0x100019258, symSize: 0x34 }
  - { offsetInCU: 0x1389D, offset: 0x64A42, size: 0x8, addend: 0x0, symName: __ZNSt3__15tupleIJRKjEEC2B8ue170006INS_4_AndELi0EEES2_, symObjAddr: 0x45A8, symBinAddr: 0x10001928C, symSize: 0x34 }
  - { offsetInCU: 0x138E4, offset: 0x64A89, size: 0x8, addend: 0x0, symName: __ZNSt3__112__tuple_implINS_15__tuple_indicesIJLm0EEEEJRKjEEC1B8ue170006IJLm0EEJS4_EJEJEJS4_EEENS1_IJXspT_EEEENS_13__tuple_typesIJDpT0_EEENS1_IJXspT1_EEEENS8_IJDpT2_EEEDpOT3_, symObjAddr: 0x45DC, symBinAddr: 0x1000192C0, symSize: 0x34 }
  - { offsetInCU: 0x1397F, offset: 0x64B24, size: 0x8, addend: 0x0, symName: __ZNSt3__112__tuple_implINS_15__tuple_indicesIJLm0EEEEJRKjEEC2B8ue170006IJLm0EEJS4_EJEJEJS4_EEENS1_IJXspT_EEEENS_13__tuple_typesIJDpT0_EEENS1_IJXspT1_EEEENS8_IJDpT2_EEEDpOT3_, symObjAddr: 0x4610, symBinAddr: 0x1000192F4, symSize: 0x34 }
  - { offsetInCU: 0x13A1A, offset: 0x64BBF, size: 0x8, addend: 0x0, symName: __ZNSt3__112__tuple_leafILm0ERKjLb0EEC2B8ue170006IS2_vEEOT_, symObjAddr: 0x4644, symBinAddr: 0x100019328, symSize: 0x20 }
  - { offsetInCU: 0x13A7A, offset: 0x64C1F, size: 0x8, addend: 0x0, symName: __ZNSt3__14fposI11__mbstate_tEC2B8ue170006Ex, symObjAddr: 0x537C, symBinAddr: 0x100019348, symSize: 0x40 }
  - { offsetInCU: 0x13AB0, offset: 0x64C55, size: 0x8, addend: 0x0, symName: __ZNKSt3__19basic_iosIcNS_11char_traitsIcEEE4failB8ue170006Ev, symObjAddr: 0x53BC, symBinAddr: 0x100019388, symSize: 0x28 }
  - { offsetInCU: 0x13AD5, offset: 0x64C7A, size: 0x8, addend: 0x0, symName: __ZNSt3__115basic_streambufIcNS_11char_traitsIcEEE10pubseekposB8ue170006ENS_4fposI11__mbstate_tEEj, symObjAddr: 0x542C, symBinAddr: 0x1000193F8, symSize: 0x94 }
  - { offsetInCU: 0x13B17, offset: 0x64CBC, size: 0x8, addend: 0x0, symName: __ZNKSt3__18ios_base4failB8ue170006Ev, symObjAddr: 0x54C0, symBinAddr: 0x10001948C, symSize: 0x28 }
  - { offsetInCU: 0x13B3E, offset: 0x64CE3, size: 0x8, addend: 0x0, symName: __ZNKSt3__14fposI11__mbstate_tEcvxB8ue170006Ev, symObjAddr: 0x54E8, symBinAddr: 0x1000194B4, symSize: 0x18 }
  - { offsetInCU: 0x13B63, offset: 0x64D08, size: 0x8, addend: 0x0, symName: __ZNSt3__16vectorINS_4pairIj5StockEENS_9allocatorIS3_EEEC2Em, symObjAddr: 0x5500, symBinAddr: 0x1000194CC, symSize: 0xD4 }
  - { offsetInCU: 0x13BB6, offset: 0x64D5B, size: 0x8, addend: 0x0, symName: __ZNSt3__117__compressed_pairIPNS_4pairIj5StockEENS_9allocatorIS3_EEEC1B8ue170006IDnNS_18__default_init_tagEEEOT_OT0_, symObjAddr: 0x55D4, symBinAddr: 0x1000195A0, symSize: 0x3C }
  - { offsetInCU: 0x13C0C, offset: 0x64DB1, size: 0x8, addend: 0x0, symName: __ZNSt3__16vectorINS_4pairIj5StockEENS_9allocatorIS3_EEE16__destroy_vectorC1B8ue170006ERS6_, symObjAddr: 0x5650, symBinAddr: 0x10001961C, symSize: 0x34 }
  - { offsetInCU: 0x13C43, offset: 0x64DE8, size: 0x8, addend: 0x0, symName: __ZNSt3__16vectorINS_4pairIj5StockEENS_9allocatorIS3_EEE11__vallocateB8ue170006Em, symObjAddr: 0x5684, symBinAddr: 0x100019650, symSize: 0xB4 }
  - { offsetInCU: 0x13C86, offset: 0x64E2B, size: 0x8, addend: 0x0, symName: __ZNSt3__16vectorINS_4pairIj5StockEENS_9allocatorIS3_EEE18__construct_at_endEm, symObjAddr: 0x5738, symBinAddr: 0x100019704, symSize: 0xC8 }
  - { offsetInCU: 0x13CF7, offset: 0x64E9C, size: 0x8, addend: 0x0, symName: __ZNSt3__128__exception_guard_exceptionsINS_6vectorINS_4pairIj5StockEENS_9allocatorIS4_EEE16__destroy_vectorEE10__completeB8ue170006Ev, symObjAddr: 0x5800, symBinAddr: 0x1000197CC, symSize: 0x1C }
  - { offsetInCU: 0x13D1C, offset: 0x64EC1, size: 0x8, addend: 0x0, symName: __ZNSt3__128__exception_guard_exceptionsINS_6vectorINS_4pairIj5StockEENS_9allocatorIS4_EEE16__destroy_vectorEED1B8ue170006Ev, symObjAddr: 0x581C, symBinAddr: 0x1000197E8, symSize: 0x2C }
  - { offsetInCU: 0x13D44, offset: 0x64EE9, size: 0x8, addend: 0x0, symName: __ZNSt3__117__compressed_pairIPNS_4pairIj5StockEENS_9allocatorIS3_EEEC2B8ue170006IDnNS_18__default_init_tagEEEOT_OT0_, symObjAddr: 0x5848, symBinAddr: 0x100019814, symSize: 0x40 }
  - { offsetInCU: 0x13D9A, offset: 0x64F3F, size: 0x8, addend: 0x0, symName: __ZNSt3__122__compressed_pair_elemIPNS_4pairIj5StockEELi0ELb0EEC2B8ue170006IDnvEEOT_, symObjAddr: 0x5888, symBinAddr: 0x100019854, symSize: 0x1C }
  - { offsetInCU: 0x13DDB, offset: 0x64F80, size: 0x8, addend: 0x0, symName: __ZNSt3__122__compressed_pair_elemINS_9allocatorINS_4pairIj5StockEEEELi1ELb1EEC2B8ue170006ENS_18__default_init_tagE, symObjAddr: 0x58A4, symBinAddr: 0x100019870, symSize: 0x2C }
  - { offsetInCU: 0x13E0E, offset: 0x64FB3, size: 0x8, addend: 0x0, symName: __ZNSt3__19allocatorINS_4pairIj5StockEEEC2B8ue170006Ev, symObjAddr: 0x58D0, symBinAddr: 0x10001989C, symSize: 0x2C }
  - { offsetInCU: 0x13E36, offset: 0x64FDB, size: 0x8, addend: 0x0, symName: __ZNSt3__116__non_trivial_ifILb1ENS_9allocatorINS_4pairIj5StockEEEEEC2B8ue170006Ev, symObjAddr: 0x58FC, symBinAddr: 0x1000198C8, symSize: 0x14 }
  - { offsetInCU: 0x13E5F, offset: 0x65004, size: 0x8, addend: 0x0, symName: __ZNSt3__128__exception_guard_exceptionsINS_6vectorINS_4pairIj5StockEENS_9allocatorIS4_EEE16__destroy_vectorEEC1B8ue170006ES8_, symObjAddr: 0x5910, symBinAddr: 0x1000198DC, symSize: 0x34 }
  - { offsetInCU: 0x13E95, offset: 0x6503A, size: 0x8, addend: 0x0, symName: __ZNSt3__128__exception_guard_exceptionsINS_6vectorINS_4pairIj5StockEENS_9allocatorIS4_EEE16__destroy_vectorEEC2B8ue170006ES8_, symObjAddr: 0x5944, symBinAddr: 0x100019910, symSize: 0x24 }
  - { offsetInCU: 0x13ECC, offset: 0x65071, size: 0x8, addend: 0x0, symName: __ZNSt3__16vectorINS_4pairIj5StockEENS_9allocatorIS3_EEE16__destroy_vectorC2B8ue170006ERS6_, symObjAddr: 0x5968, symBinAddr: 0x100019934, symSize: 0x20 }
  - { offsetInCU: 0x13F04, offset: 0x650A9, size: 0x8, addend: 0x0, symName: __ZNKSt3__16vectorINS_4pairIj5StockEENS_9allocatorIS3_EEE8max_sizeEv, symObjAddr: 0x5988, symBinAddr: 0x100019954, symSize: 0x60 }
  - { offsetInCU: 0x13F2A, offset: 0x650CF, size: 0x8, addend: 0x0, symName: __ZNKSt3__16vectorINS_4pairIj5StockEENS_9allocatorIS3_EEE20__throw_length_errorB8ue170006Ev, symObjAddr: 0x59E8, symBinAddr: 0x1000199B4, symSize: 0x1C }
  - { offsetInCU: 0x13F4F, offset: 0x650F4, size: 0x8, addend: 0x0, symName: __ZNSt3__16vectorINS_4pairIj5StockEENS_9allocatorIS3_EEE7__allocB8ue170006Ev, symObjAddr: 0x5A44, symBinAddr: 0x100019A10, symSize: 0x28 }
  - { offsetInCU: 0x13F74, offset: 0x65119, size: 0x8, addend: 0x0, symName: __ZNSt3__16vectorINS_4pairIj5StockEENS_9allocatorIS3_EEE9__end_capB8ue170006Ev, symObjAddr: 0x5A6C, symBinAddr: 0x100019A38, symSize: 0x28 }
  - { offsetInCU: 0x13F99, offset: 0x6513E, size: 0x8, addend: 0x0, symName: __ZNKSt3__16vectorINS_4pairIj5StockEENS_9allocatorIS3_EEE14__annotate_newB8ue170006Em, symObjAddr: 0x5A94, symBinAddr: 0x100019A60, symSize: 0xC8 }
  - { offsetInCU: 0x13FD7, offset: 0x6517C, size: 0x8, addend: 0x0, symName: __ZNSt3__116allocator_traitsINS_9allocatorINS_4pairIj5StockEEEEE8max_sizeB8ue170006IS5_vEEmRKS5_, symObjAddr: 0x5B88, symBinAddr: 0x100019B28, symSize: 0x24 }
  - { offsetInCU: 0x14005, offset: 0x651AA, size: 0x8, addend: 0x0, symName: __ZNKSt3__16vectorINS_4pairIj5StockEENS_9allocatorIS3_EEE7__allocB8ue170006Ev, symObjAddr: 0x5BAC, symBinAddr: 0x100019B4C, symSize: 0x28 }
  - { offsetInCU: 0x1402A, offset: 0x651CF, size: 0x8, addend: 0x0, symName: __ZNKSt3__19allocatorINS_4pairIj5StockEEE8max_sizeB8ue170006Ev, symObjAddr: 0x5C3C, symBinAddr: 0x100019B74, symSize: 0x20 }
  - { offsetInCU: 0x1404F, offset: 0x651F4, size: 0x8, addend: 0x0, symName: __ZNKSt3__117__compressed_pairIPNS_4pairIj5StockEENS_9allocatorIS3_EEE6secondB8ue170006Ev, symObjAddr: 0x5C5C, symBinAddr: 0x100019B94, symSize: 0x24 }
  - { offsetInCU: 0x14074, offset: 0x65219, size: 0x8, addend: 0x0, symName: __ZNKSt3__122__compressed_pair_elemINS_9allocatorINS_4pairIj5StockEEEELi1ELb1EE5__getB8ue170006Ev, symObjAddr: 0x5C80, symBinAddr: 0x100019BB8, symSize: 0x14 }
  - { offsetInCU: 0x14099, offset: 0x6523E, size: 0x8, addend: 0x0, symName: __ZNSt3__19allocatorINS_4pairIj5StockEEE8allocateB8ue170006Em, symObjAddr: 0x5D80, symBinAddr: 0x100019BCC, symSize: 0x5C }
  - { offsetInCU: 0x140CC, offset: 0x65271, size: 0x8, addend: 0x0, symName: __ZNSt3__117__compressed_pairIPNS_4pairIj5StockEENS_9allocatorIS3_EEE6secondB8ue170006Ev, symObjAddr: 0x5DDC, symBinAddr: 0x100019C28, symSize: 0x24 }
  - { offsetInCU: 0x140F1, offset: 0x65296, size: 0x8, addend: 0x0, symName: __ZNSt3__122__compressed_pair_elemINS_9allocatorINS_4pairIj5StockEEEELi1ELb1EE5__getB8ue170006Ev, symObjAddr: 0x5E00, symBinAddr: 0x100019C4C, symSize: 0x14 }
  - { offsetInCU: 0x14116, offset: 0x652BB, size: 0x8, addend: 0x0, symName: __ZNSt3__117__compressed_pairIPNS_4pairIj5StockEENS_9allocatorIS3_EEE5firstB8ue170006Ev, symObjAddr: 0x5E14, symBinAddr: 0x100019C60, symSize: 0x24 }
  - { offsetInCU: 0x1413B, offset: 0x652E0, size: 0x8, addend: 0x0, symName: __ZNSt3__122__compressed_pair_elemIPNS_4pairIj5StockEELi0ELb0EE5__getB8ue170006Ev, symObjAddr: 0x5E38, symBinAddr: 0x100019C84, symSize: 0x14 }
  - { offsetInCU: 0x14160, offset: 0x65305, size: 0x8, addend: 0x0, symName: __ZNKSt3__16vectorINS_4pairIj5StockEENS_9allocatorIS3_EEE31__annotate_contiguous_containerB8ue170006EPKvS8_S8_S8_, symObjAddr: 0x5E4C, symBinAddr: 0x100019C98, symSize: 0x20 }
  - { offsetInCU: 0x141B5, offset: 0x6535A, size: 0x8, addend: 0x0, symName: __ZNKSt3__16vectorINS_4pairIj5StockEENS_9allocatorIS3_EEE4dataB8ue170006Ev, symObjAddr: 0x5E6C, symBinAddr: 0x100019CB8, symSize: 0x28 }
  - { offsetInCU: 0x141DA, offset: 0x6537F, size: 0x8, addend: 0x0, symName: __ZNKSt3__16vectorINS_4pairIj5StockEENS_9allocatorIS3_EEE8capacityB8ue170006Ev, symObjAddr: 0x5E94, symBinAddr: 0x100019CE0, symSize: 0x40 }
  - { offsetInCU: 0x141FF, offset: 0x653A4, size: 0x8, addend: 0x0, symName: __ZNKSt3__16vectorINS_4pairIj5StockEENS_9allocatorIS3_EEE9__end_capB8ue170006Ev, symObjAddr: 0x5EE8, symBinAddr: 0x100019D34, symSize: 0x28 }
  - { offsetInCU: 0x14224, offset: 0x653C9, size: 0x8, addend: 0x0, symName: __ZNKSt3__117__compressed_pairIPNS_4pairIj5StockEENS_9allocatorIS3_EEE5firstB8ue170006Ev, symObjAddr: 0x5F10, symBinAddr: 0x100019D5C, symSize: 0x24 }
  - { offsetInCU: 0x14249, offset: 0x653EE, size: 0x8, addend: 0x0, symName: __ZNKSt3__122__compressed_pair_elemIPNS_4pairIj5StockEELi0ELb0EE5__getB8ue170006Ev, symObjAddr: 0x5F34, symBinAddr: 0x100019D80, symSize: 0x14 }
  - { offsetInCU: 0x14287, offset: 0x6542C, size: 0x8, addend: 0x0, symName: __ZNSt3__16vectorINS_4pairIj5StockEENS_9allocatorIS3_EEE21_ConstructTransactionC1B8ue170006ERS6_m, symObjAddr: 0x5F48, symBinAddr: 0x100019D94, symSize: 0x3C }
  - { offsetInCU: 0x142CD, offset: 0x65472, size: 0x8, addend: 0x0, symName: __ZNSt3__116allocator_traitsINS_9allocatorINS_4pairIj5StockEEEEE9constructB8ue170006IS4_JEvEEvRS5_PT_DpOT0_, symObjAddr: 0x5F84, symBinAddr: 0x100019DD0, symSize: 0x2C }
  - { offsetInCU: 0x14310, offset: 0x654B5, size: 0x8, addend: 0x0, symName: __ZNSt3__16vectorINS_4pairIj5StockEENS_9allocatorIS3_EEE21_ConstructTransactionD1B8ue170006Ev, symObjAddr: 0x5FB0, symBinAddr: 0x100019DFC, symSize: 0x2C }
  - { offsetInCU: 0x14338, offset: 0x654DD, size: 0x8, addend: 0x0, symName: __ZNSt3__16vectorINS_4pairIj5StockEENS_9allocatorIS3_EEE21_ConstructTransactionC2B8ue170006ERS6_m, symObjAddr: 0x5FDC, symBinAddr: 0x100019E28, symSize: 0x4C }
  - { offsetInCU: 0x1437F, offset: 0x65524, size: 0x8, addend: 0x0, symName: __ZNSt3__19allocatorINS_4pairIj5StockEEE9constructB8ue170006IS3_JEEEvPT_DpOT0_, symObjAddr: 0x6028, symBinAddr: 0x100019E74, symSize: 0x28 }
  - { offsetInCU: 0x143C1, offset: 0x65566, size: 0x8, addend: 0x0, symName: __ZNSt3__14pairIj5StockEC1B8ue170006ILb1ELPv0EEEv, symObjAddr: 0x6050, symBinAddr: 0x100019E9C, symSize: 0x2C }
  - { offsetInCU: 0x143FA, offset: 0x6559F, size: 0x8, addend: 0x0, symName: __ZNSt3__14pairIj5StockEC2B8ue170006ILb1ELPv0EEEv, symObjAddr: 0x607C, symBinAddr: 0x100019EC8, symSize: 0x34 }
  - { offsetInCU: 0x14433, offset: 0x655D8, size: 0x8, addend: 0x0, symName: __ZNSt3__16vectorINS_4pairIj5StockEENS_9allocatorIS3_EEE21_ConstructTransactionD2B8ue170006Ev, symObjAddr: 0x60B0, symBinAddr: 0x100019EFC, symSize: 0x20 }
  - { offsetInCU: 0x1445C, offset: 0x65601, size: 0x8, addend: 0x0, symName: __ZNSt3__128__exception_guard_exceptionsINS_6vectorINS_4pairIj5StockEENS_9allocatorIS4_EEE16__destroy_vectorEED2B8ue170006Ev, symObjAddr: 0x60D0, symBinAddr: 0x100019F1C, symSize: 0x50 }
  - { offsetInCU: 0x14484, offset: 0x65629, size: 0x8, addend: 0x0, symName: __ZNSt3__16vectorINS_4pairIj5StockEENS_9allocatorIS3_EEE16__destroy_vectorclB8ue170006Ev, symObjAddr: 0x6120, symBinAddr: 0x100019F6C, symSize: 0x90 }
  - { offsetInCU: 0x144A9, offset: 0x6564E, size: 0x8, addend: 0x0, symName: __ZNSt3__16vectorINS_4pairIj5StockEENS_9allocatorIS3_EEE7__clearB8ue170006Ev, symObjAddr: 0x61B0, symBinAddr: 0x100019FFC, symSize: 0x28 }
  - { offsetInCU: 0x144CE, offset: 0x65673, size: 0x8, addend: 0x0, symName: __ZNKSt3__16vectorINS_4pairIj5StockEENS_9allocatorIS3_EEE17__annotate_deleteB8ue170006Ev, symObjAddr: 0x61D8, symBinAddr: 0x10001A024, symSize: 0xD4 }
  - { offsetInCU: 0x144F3, offset: 0x65698, size: 0x8, addend: 0x0, symName: __ZNSt3__116allocator_traitsINS_9allocatorINS_4pairIj5StockEEEEE10deallocateB8ue170006ERS5_PS4_m, symObjAddr: 0x62AC, symBinAddr: 0x10001A0F8, symSize: 0x34 }
  - { offsetInCU: 0x14535, offset: 0x656DA, size: 0x8, addend: 0x0, symName: __ZNSt3__16vectorINS_4pairIj5StockEENS_9allocatorIS3_EEE22__base_destruct_at_endB8ue170006EPS3_, symObjAddr: 0x62E0, symBinAddr: 0x10001A12C, symSize: 0x8C }
  - { offsetInCU: 0x14578, offset: 0x6571D, size: 0x8, addend: 0x0, symName: __ZNSt3__116allocator_traitsINS_9allocatorINS_4pairIj5StockEEEEE7destroyB8ue170006IS4_vEEvRS5_PT_, symObjAddr: 0x636C, symBinAddr: 0x10001A1B8, symSize: 0x2C }
  - { offsetInCU: 0x145B5, offset: 0x6575A, size: 0x8, addend: 0x0, symName: __ZNSt3__19allocatorINS_4pairIj5StockEEE7destroyB8ue170006EPS3_, symObjAddr: 0x6398, symBinAddr: 0x10001A1E4, symSize: 0x28 }
  - { offsetInCU: 0x145E8, offset: 0x6578D, size: 0x8, addend: 0x0, symName: __ZNKSt3__16vectorINS_4pairIj5StockEENS_9allocatorIS3_EEE4sizeB8ue170006Ev, symObjAddr: 0x63C0, symBinAddr: 0x10001A20C, symSize: 0x28 }
  - { offsetInCU: 0x1460D, offset: 0x657B2, size: 0x8, addend: 0x0, symName: __ZNSt3__19allocatorINS_4pairIj5StockEEE10deallocateB8ue170006EPS3_m, symObjAddr: 0x63E8, symBinAddr: 0x10001A234, symSize: 0x44 }
  - { offsetInCU: 0x1464E, offset: 0x657F3, size: 0x8, addend: 0x0, symName: __ZNSt3__16vectorINS_4pairIj5StockEENS_9allocatorIS3_EEED2B8ue170006Ev, symObjAddr: 0x642C, symBinAddr: 0x10001A278, symSize: 0x40 }
  - { offsetInCU: 0x14676, offset: 0x6581B, size: 0x8, addend: 0x0, symName: __ZNSt3__16vectorINS_4pairIj5StockEENS_9allocatorIS3_EEE11__make_iterB8ue170006EPS3_, symObjAddr: 0x646C, symBinAddr: 0x10001A2B8, symSize: 0x30 }
  - { offsetInCU: 0x146AA, offset: 0x6584F, size: 0x8, addend: 0x0, symName: __ZNSt3__111__wrap_iterIPNS_4pairIj5StockEEEC1B8ue170006ES4_, symObjAddr: 0x649C, symBinAddr: 0x10001A2E8, symSize: 0x34 }
  - { offsetInCU: 0x146E0, offset: 0x65885, size: 0x8, addend: 0x0, symName: __ZNSt3__111__wrap_iterIPNS_4pairIj5StockEEEC2B8ue170006ES4_, symObjAddr: 0x64D0, symBinAddr: 0x10001A31C, symSize: 0x20 }
  - { offsetInCU: 0x14717, offset: 0x658BC, size: 0x8, addend: 0x0, symName: __ZNKSt3__112__hash_tableINS_17__hash_value_typeIj5StockEENS_22__unordered_map_hasherIjS3_NS_4hashIjEENS_8equal_toIjEELb1EEENS_21__unordered_map_equalIjS3_S8_S6_Lb1EEENS_9allocatorIS3_EEE4sizeB8ue170006Ev, symObjAddr: 0x64F0, symBinAddr: 0x10001A33C, symSize: 0x2C }
  - { offsetInCU: 0x1473C, offset: 0x658E1, size: 0x8, addend: 0x0, symName: __ZNKSt3__117__compressed_pairImNS_22__unordered_map_hasherIjNS_17__hash_value_typeIj5StockEENS_4hashIjEENS_8equal_toIjEELb1EEEE5firstB8ue170006Ev, symObjAddr: 0x651C, symBinAddr: 0x10001A368, symSize: 0x24 }
  - { offsetInCU: 0x14761, offset: 0x65906, size: 0x8, addend: 0x0, symName: __ZNSt3__16vectorINS_4pairIj5StockEENS_9allocatorIS3_EEEC2B8ue170006Ev, symObjAddr: 0x6540, symBinAddr: 0x10001A38C, symSize: 0x4C }
  - { offsetInCU: 0x14789, offset: 0x6592E, size: 0x8, addend: 0x0, symName: __ZNSt3__16vectorINS_4pairIj5StockEENS_9allocatorIS3_EEE22__construct_one_at_endB8ue170006IJS3_EEEvDpOT_, symObjAddr: 0x65E4, symBinAddr: 0x10001A3D8, symSize: 0x90 }
  - { offsetInCU: 0x147D9, offset: 0x6597E, size: 0x8, addend: 0x0, symName: __ZNSt3__16vectorINS_4pairIj5StockEENS_9allocatorIS3_EEE21__push_back_slow_pathIS3_EEvOT_, symObjAddr: 0x6674, symBinAddr: 0x10001A468, symSize: 0xD8 }
  - { offsetInCU: 0x14835, offset: 0x659DA, size: 0x8, addend: 0x0, symName: __ZNSt3__116allocator_traitsINS_9allocatorINS_4pairIj5StockEEEEE9constructB8ue170006IS4_JS4_EvEEvRS5_PT_DpOT0_, symObjAddr: 0x674C, symBinAddr: 0x10001A540, symSize: 0x34 }
  - { offsetInCU: 0x1488E, offset: 0x65A33, size: 0x8, addend: 0x0, symName: __ZNSt3__19allocatorINS_4pairIj5StockEEE9constructB8ue170006IS3_JS3_EEEvPT_DpOT0_, symObjAddr: 0x6780, symBinAddr: 0x10001A574, symSize: 0x30 }
  - { offsetInCU: 0x148E5, offset: 0x65A8A, size: 0x8, addend: 0x0, symName: __ZNSt3__14pairIj5StockEC1B8ue170006EOS2_, symObjAddr: 0x67B0, symBinAddr: 0x10001A5A4, symSize: 0x34 }
  - { offsetInCU: 0x14918, offset: 0x65ABD, size: 0x8, addend: 0x0, symName: __ZNSt3__14pairIj5StockEC2B8ue170006EOS2_, symObjAddr: 0x67E4, symBinAddr: 0x10001A5D8, symSize: 0x48 }
  - { offsetInCU: 0x14950, offset: 0x65AF5, size: 0x8, addend: 0x0, symName: __ZN5StockC1EOS_, symObjAddr: 0x682C, symBinAddr: 0x10001A620, symSize: 0x34 }
  - { offsetInCU: 0x14984, offset: 0x65B29, size: 0x8, addend: 0x0, symName: __ZN5StockC2EOS_, symObjAddr: 0x6860, symBinAddr: 0x10001A654, symSize: 0x50 }
  - { offsetInCU: 0x149BD, offset: 0x65B62, size: 0x8, addend: 0x0, symName: __ZN9StockData14DailyOpenCloseC1EOS0_, symObjAddr: 0x68B0, symBinAddr: 0x10001A6A4, symSize: 0x34 }
  - { offsetInCU: 0x149F1, offset: 0x65B96, size: 0x8, addend: 0x0, symName: __ZN9StockData14DailyOpenCloseC2EOS0_, symObjAddr: 0x68E4, symBinAddr: 0x10001A6D8, symSize: 0x78 }
  - { offsetInCU: 0x14A25, offset: 0x65BCA, size: 0x8, addend: 0x0, symName: __ZNKSt3__16vectorINS_4pairIj5StockEENS_9allocatorIS3_EEE11__recommendB8ue170006Em, symObjAddr: 0x69D8, symBinAddr: 0x10001A750, symSize: 0xB4 }
  - { offsetInCU: 0x14A78, offset: 0x65C1D, size: 0x8, addend: 0x0, symName: __ZNSt3__114__split_bufferINS_4pairIj5StockEERNS_9allocatorIS3_EEEC1EmmS6_, symObjAddr: 0x6A8C, symBinAddr: 0x10001A804, symSize: 0x44 }
  - { offsetInCU: 0x14ACC, offset: 0x65C71, size: 0x8, addend: 0x0, symName: __ZNSt3__114__split_bufferINS_4pairIj5StockEERNS_9allocatorIS3_EEED1Ev, symObjAddr: 0x6BE0, symBinAddr: 0x10001A958, symSize: 0x2C }
  - { offsetInCU: 0x14AF6, offset: 0x65C9B, size: 0x8, addend: 0x0, symName: __ZNSt3__114__split_bufferINS_4pairIj5StockEERNS_9allocatorIS3_EEEC2EmmS6_, symObjAddr: 0x6C0C, symBinAddr: 0x10001A984, symSize: 0xE0 }
  - { offsetInCU: 0x14B68, offset: 0x65D0D, size: 0x8, addend: 0x0, symName: __ZNSt3__117__compressed_pairIPNS_4pairIj5StockEERNS_9allocatorIS3_EEEC1B8ue170006IDnS7_EEOT_OT0_, symObjAddr: 0x6CEC, symBinAddr: 0x10001AA64, symSize: 0x3C }
  - { offsetInCU: 0x14BBE, offset: 0x65D63, size: 0x8, addend: 0x0, symName: __ZNSt3__114__split_bufferINS_4pairIj5StockEERNS_9allocatorIS3_EEE7__allocB8ue170006Ev, symObjAddr: 0x6D28, symBinAddr: 0x10001AAA0, symSize: 0x28 }
  - { offsetInCU: 0x14BE3, offset: 0x65D88, size: 0x8, addend: 0x0, symName: __ZNSt3__114__split_bufferINS_4pairIj5StockEERNS_9allocatorIS3_EEE9__end_capB8ue170006Ev, symObjAddr: 0x6D50, symBinAddr: 0x10001AAC8, symSize: 0x28 }
  - { offsetInCU: 0x14C08, offset: 0x65DAD, size: 0x8, addend: 0x0, symName: __ZNSt3__117__compressed_pairIPNS_4pairIj5StockEERNS_9allocatorIS3_EEEC2B8ue170006IDnS7_EEOT_OT0_, symObjAddr: 0x6D78, symBinAddr: 0x10001AAF0, symSize: 0x48 }
  - { offsetInCU: 0x14C5E, offset: 0x65E03, size: 0x8, addend: 0x0, symName: __ZNSt3__122__compressed_pair_elemIRNS_9allocatorINS_4pairIj5StockEEEELi1ELb0EEC2B8ue170006IS6_vEEOT_, symObjAddr: 0x6DC0, symBinAddr: 0x10001AB38, symSize: 0x20 }
  - { offsetInCU: 0x14C9F, offset: 0x65E44, size: 0x8, addend: 0x0, symName: __ZNSt3__117__compressed_pairIPNS_4pairIj5StockEERNS_9allocatorIS3_EEE6secondB8ue170006Ev, symObjAddr: 0x6DE0, symBinAddr: 0x10001AB58, symSize: 0x28 }
  - { offsetInCU: 0x14CC4, offset: 0x65E69, size: 0x8, addend: 0x0, symName: __ZNSt3__122__compressed_pair_elemIRNS_9allocatorINS_4pairIj5StockEEEELi1ELb0EE5__getB8ue170006Ev, symObjAddr: 0x6E08, symBinAddr: 0x10001AB80, symSize: 0x18 }
  - { offsetInCU: 0x14CE9, offset: 0x65E8E, size: 0x8, addend: 0x0, symName: __ZNSt3__117__compressed_pairIPNS_4pairIj5StockEERNS_9allocatorIS3_EEE5firstB8ue170006Ev, symObjAddr: 0x6E20, symBinAddr: 0x10001AB98, symSize: 0x24 }
  - { offsetInCU: 0x14D0E, offset: 0x65EB3, size: 0x8, addend: 0x0, symName: __ZNSt3__116reverse_iteratorIPNS_4pairIj5StockEEEC1B8ue170006ES4_, symObjAddr: 0x6F70, symBinAddr: 0x10001ACE8, symSize: 0x34 }
  - { offsetInCU: 0x14D44, offset: 0x65EE9, size: 0x8, addend: 0x0, symName: __ZNKSt3__116reverse_iteratorIPNS_4pairIj5StockEEE4baseB8ue170006Ev, symObjAddr: 0x6FA4, symBinAddr: 0x10001AD1C, symSize: 0x18 }
  - { offsetInCU: 0x14D69, offset: 0x65F0E, size: 0x8, addend: 0x0, symName: __ZNSt3__129_AllocatorDestroyRangeReverseINS_9allocatorINS_4pairIj5StockEEEENS_16reverse_iteratorIPS4_EEEC1B8ue170006ERS5_RS8_SB_, symObjAddr: 0x7044, symBinAddr: 0x10001ADBC, symSize: 0x44 }
  - { offsetInCU: 0x14DBE, offset: 0x65F63, size: 0x8, addend: 0x0, symName: __ZNKSt3__116reverse_iteratorIPNS_4pairIj5StockEEEdeB8ue170006Ev, symObjAddr: 0x70F4, symBinAddr: 0x10001AE6C, symSize: 0x28 }
  - { offsetInCU: 0x14DF1, offset: 0x65F96, size: 0x8, addend: 0x0, symName: __ZNSt3__116reverse_iteratorIPNS_4pairIj5StockEEEppB8ue170006Ev, symObjAddr: 0x711C, symBinAddr: 0x10001AE94, symSize: 0x20 }
  - { offsetInCU: 0x14E16, offset: 0x65FBB, size: 0x8, addend: 0x0, symName: __ZNSt3__128__exception_guard_exceptionsINS_29_AllocatorDestroyRangeReverseINS_9allocatorINS_4pairIj5StockEEEENS_16reverse_iteratorIPS5_EEEEE10__completeB8ue170006Ev, symObjAddr: 0x713C, symBinAddr: 0x10001AEB4, symSize: 0x1C }
  - { offsetInCU: 0x14E3B, offset: 0x65FE0, size: 0x8, addend: 0x0, symName: __ZNSt3__128__exception_guard_exceptionsINS_29_AllocatorDestroyRangeReverseINS_9allocatorINS_4pairIj5StockEEEENS_16reverse_iteratorIPS5_EEEEED1B8ue170006Ev, symObjAddr: 0x7158, symBinAddr: 0x10001AED0, symSize: 0x2C }
  - { offsetInCU: 0x14E63, offset: 0x66008, size: 0x8, addend: 0x0, symName: __ZNSt3__128__exception_guard_exceptionsINS_29_AllocatorDestroyRangeReverseINS_9allocatorINS_4pairIj5StockEEEENS_16reverse_iteratorIPS5_EEEEEC1B8ue170006ESA_, symObjAddr: 0x7184, symBinAddr: 0x10001AEFC, symSize: 0x34 }
  - { offsetInCU: 0x14E9A, offset: 0x6603F, size: 0x8, addend: 0x0, symName: __ZNSt3__128__exception_guard_exceptionsINS_29_AllocatorDestroyRangeReverseINS_9allocatorINS_4pairIj5StockEEEENS_16reverse_iteratorIPS5_EEEEEC2B8ue170006ESA_, symObjAddr: 0x71B8, symBinAddr: 0x10001AF30, symSize: 0x30 }
  - { offsetInCU: 0x14ED2, offset: 0x66077, size: 0x8, addend: 0x0, symName: __ZNSt3__129_AllocatorDestroyRangeReverseINS_9allocatorINS_4pairIj5StockEEEENS_16reverse_iteratorIPS4_EEEC2B8ue170006ERS5_RS8_SB_, symObjAddr: 0x71E8, symBinAddr: 0x10001AF60, symSize: 0x38 }
  - { offsetInCU: 0x14F2D, offset: 0x660D2, size: 0x8, addend: 0x0, symName: __ZNSt3__119__to_address_helperINS_16reverse_iteratorIPNS_4pairIj5StockEEEEvE6__callB8ue170006ERKS6_, symObjAddr: 0x7220, symBinAddr: 0x10001AF98, symSize: 0x38 }
  - { offsetInCU: 0x14F50, offset: 0x660F5, size: 0x8, addend: 0x0, symName: __ZNKSt3__116reverse_iteratorIPNS_4pairIj5StockEEEptB8ue170006Ev, symObjAddr: 0x7258, symBinAddr: 0x10001AFD0, symSize: 0x24 }
  - { offsetInCU: 0x14F75, offset: 0x6611A, size: 0x8, addend: 0x0, symName: __ZNSt3__128__exception_guard_exceptionsINS_29_AllocatorDestroyRangeReverseINS_9allocatorINS_4pairIj5StockEEEENS_16reverse_iteratorIPS5_EEEEED2B8ue170006Ev, symObjAddr: 0x727C, symBinAddr: 0x10001AFF4, symSize: 0x50 }
  - { offsetInCU: 0x14F9D, offset: 0x66142, size: 0x8, addend: 0x0, symName: __ZNKSt3__129_AllocatorDestroyRangeReverseINS_9allocatorINS_4pairIj5StockEEEENS_16reverse_iteratorIPS4_EEEclB8ue170006Ev, symObjAddr: 0x72CC, symBinAddr: 0x10001B044, symSize: 0xB4 }
  - { offsetInCU: 0x14FC3, offset: 0x66168, size: 0x8, addend: 0x0, symName: __ZNSt3__116reverse_iteratorINS0_IPNS_4pairIj5StockEEEEEC1B8ue170006ES5_, symObjAddr: 0x73F0, symBinAddr: 0x10001B168, symSize: 0x3C }
  - { offsetInCU: 0x14FF9, offset: 0x6619E, size: 0x8, addend: 0x0, symName: __ZNSt3__116reverse_iteratorINS0_IPNS_4pairIj5StockEEEEEppB8ue170006Ev, symObjAddr: 0x74B0, symBinAddr: 0x10001B228, symSize: 0x30 }
  - { offsetInCU: 0x1501E, offset: 0x661C3, size: 0x8, addend: 0x0, symName: __ZNKSt3__116reverse_iteratorINS0_IPNS_4pairIj5StockEEEEE4baseB8ue170006Ev, symObjAddr: 0x74E0, symBinAddr: 0x10001B258, symSize: 0x24 }
  - { offsetInCU: 0x15048, offset: 0x661ED, size: 0x8, addend: 0x0, symName: __ZNSt3__119__to_address_helperINS_16reverse_iteratorINS1_IPNS_4pairIj5StockEEEEEEvE6__callB8ue170006ERKS7_, symObjAddr: 0x7504, symBinAddr: 0x10001B27C, symSize: 0x38 }
  - { offsetInCU: 0x1506B, offset: 0x66210, size: 0x8, addend: 0x0, symName: __ZNKSt3__116reverse_iteratorINS0_IPNS_4pairIj5StockEEEEEptB8ue170006Ev, symObjAddr: 0x753C, symBinAddr: 0x10001B2B4, symSize: 0x24 }
  - { offsetInCU: 0x15090, offset: 0x66235, size: 0x8, addend: 0x0, symName: __ZNKSt3__116reverse_iteratorINS0_IPNS_4pairIj5StockEEEEEdeB8ue170006Ev, symObjAddr: 0x7560, symBinAddr: 0x10001B2D8, symSize: 0x34 }
  - { offsetInCU: 0x150C3, offset: 0x66268, size: 0x8, addend: 0x0, symName: __ZNSt3__116reverse_iteratorIPNS_4pairIj5StockEEEmmB8ue170006Ev, symObjAddr: 0x7594, symBinAddr: 0x10001B30C, symSize: 0x20 }
  - { offsetInCU: 0x150E8, offset: 0x6628D, size: 0x8, addend: 0x0, symName: __ZNSt3__116reverse_iteratorINS0_IPNS_4pairIj5StockEEEEEC2B8ue170006ES5_, symObjAddr: 0x75B4, symBinAddr: 0x10001B32C, symSize: 0x2C }
  - { offsetInCU: 0x1511F, offset: 0x662C4, size: 0x8, addend: 0x0, symName: __ZNSt3__116reverse_iteratorIPNS_4pairIj5StockEEEC2B8ue170006ES4_, symObjAddr: 0x75E0, symBinAddr: 0x10001B358, symSize: 0x28 }
  - { offsetInCU: 0x15156, offset: 0x662FB, size: 0x8, addend: 0x0, symName: __ZNSt3__114__split_bufferINS_4pairIj5StockEERNS_9allocatorIS3_EEED2Ev, symObjAddr: 0x7608, symBinAddr: 0x10001B380, symSize: 0x8C }
  - { offsetInCU: 0x15180, offset: 0x66325, size: 0x8, addend: 0x0, symName: __ZNSt3__114__split_bufferINS_4pairIj5StockEERNS_9allocatorIS3_EEE5clearB8ue170006Ev, symObjAddr: 0x7694, symBinAddr: 0x10001B40C, symSize: 0x28 }
  - { offsetInCU: 0x151A5, offset: 0x6634A, size: 0x8, addend: 0x0, symName: __ZNKSt3__114__split_bufferINS_4pairIj5StockEERNS_9allocatorIS3_EEE8capacityB8ue170006Ev, symObjAddr: 0x76BC, symBinAddr: 0x10001B434, symSize: 0x40 }
  - { offsetInCU: 0x151CA, offset: 0x6636F, size: 0x8, addend: 0x0, symName: __ZNSt3__114__split_bufferINS_4pairIj5StockEERNS_9allocatorIS3_EEE17__destruct_at_endB8ue170006EPS3_, symObjAddr: 0x76FC, symBinAddr: 0x10001B474, symSize: 0x2C }
  - { offsetInCU: 0x151FD, offset: 0x663A2, size: 0x8, addend: 0x0, symName: __ZNSt3__114__split_bufferINS_4pairIj5StockEERNS_9allocatorIS3_EEE17__destruct_at_endB8ue170006EPS3_NS_17integral_constantIbLb0EEE, symObjAddr: 0x7728, symBinAddr: 0x10001B4A0, symSize: 0x80 }
  - { offsetInCU: 0x1523C, offset: 0x663E1, size: 0x8, addend: 0x0, symName: __ZNKSt3__114__split_bufferINS_4pairIj5StockEERNS_9allocatorIS3_EEE9__end_capB8ue170006Ev, symObjAddr: 0x77A8, symBinAddr: 0x10001B520, symSize: 0x28 }
  - { offsetInCU: 0x15261, offset: 0x66406, size: 0x8, addend: 0x0, symName: __ZNKSt3__117__compressed_pairIPNS_4pairIj5StockEERNS_9allocatorIS3_EEE5firstB8ue170006Ev, symObjAddr: 0x77D0, symBinAddr: 0x10001B548, symSize: 0x24 }
  - { offsetInCU: 0x26, offset: 0x66586, size: 0x8, addend: 0x0, symName: __Z19stringToStockSymbolRNSt3__112basic_stringIcNS_11char_traitsIcEENS_9allocatorIcEEEE, symObjAddr: 0x0, symBinAddr: 0x10001B56C, symSize: 0xD4 }
  - { offsetInCU: 0x4689, offset: 0x6ABE9, size: 0x8, addend: 0x0, symName: __Z19stringToStockSymbolRNSt3__112basic_stringIcNS_11char_traitsIcEENS_9allocatorIcEEEE, symObjAddr: 0x0, symBinAddr: 0x10001B56C, symSize: 0xD4 }
  - { offsetInCU: 0x4786, offset: 0x6ACE6, size: 0x8, addend: 0x0, symName: __ZNSt3__112basic_stringIcNS_11char_traitsIcEENS_9allocatorIcEEEixB8ue170006Em, symObjAddr: 0xD4, symBinAddr: 0x10001B640, symSize: 0x30 }
  - { offsetInCU: 0x47BA, offset: 0x6AD1A, size: 0x8, addend: 0x0, symName: __Z19stockSymbolToStringj, symObjAddr: 0x104, symBinAddr: 0x10001B670, symSize: 0x124 }
  - { offsetInCU: 0x4932, offset: 0x6AE92, size: 0x8, addend: 0x0, symName: __ZN5Stock14calculatePriceEv, symObjAddr: 0x290, symBinAddr: 0x10001B794, symSize: 0x54 }
  - { offsetInCU: 0x89, offset: 0x6AF51, size: 0x8, addend: 0x0, symName: __ZN2UI12formatPadStrENSt3__112basic_stringIcNS0_11char_traitsIcEENS0_9allocatorIcEEEENS_7PadSizeENS_7PadTypeE, symObjAddr: 0x0, symBinAddr: 0x10001B7E8, symSize: 0x158 }
  - { offsetInCU: 0xE0, offset: 0x6AFA8, size: 0x8, addend: 0x0, symName: __ZN2UI12toDecimalStrEd, symObjAddr: 0x2FC, symBinAddr: 0x10001B984, symSize: 0x164 }
  - { offsetInCU: 0x129, offset: 0x6AFF1, size: 0x8, addend: 0x0, symName: __ZN2UI12toDecimalStrEcd, symObjAddr: 0x460, symBinAddr: 0x10001BAE8, symSize: 0x128 }
  - { offsetInCU: 0x171, offset: 0x6B039, size: 0x8, addend: 0x0, symName: __ZN2UI12toDecimalStrEdc, symObjAddr: 0x654, symBinAddr: 0x10001BC28, symSize: 0x124 }
  - { offsetInCU: 0x1B9, offset: 0x6B081, size: 0x8, addend: 0x0, symName: __ZN2UI15formatUserInputERNSt3__112basic_stringIcNS0_11char_traitsIcEENS0_9allocatorIcEEEENS_11InputFormatE, symObjAddr: 0x778, symBinAddr: 0x10001BD4C, symSize: 0x27C }
  - { offsetInCU: 0x263, offset: 0x6B12B, size: 0x8, addend: 0x0, symName: __ZN2UI12getUserInputENSt3__112basic_stringIcNS0_11char_traitsIcEENS0_9allocatorIcEEEERS6_NS_11InputFormatE, symObjAddr: 0xA7C, symBinAddr: 0x10001C020, symSize: 0x9C }
  - { offsetInCU: 0x2C55, offset: 0x6DB1D, size: 0x8, addend: 0x0, symName: __ZNSt3__1plB8ue170006IcNS_11char_traitsIcEENS_9allocatorIcEEEENS_12basic_stringIT_T0_T1_EERKS9_OS9_, symObjAddr: 0x1E0, symBinAddr: 0x10001B940, symSize: 0x44 }
  - { offsetInCU: 0x3425, offset: 0x6E2ED, size: 0x8, addend: 0x0, symName: __Z7toloweri, symObjAddr: 0xA58, symBinAddr: 0x10001BFFC, symSize: 0x24 }
  - { offsetInCU: 0x3453, offset: 0x6E31B, size: 0x8, addend: 0x0, symName: __Z7toupperi, symObjAddr: 0xA04, symBinAddr: 0x10001BFD8, symSize: 0x24 }
  - { offsetInCU: 0x4B62, offset: 0x6FA2A, size: 0x8, addend: 0x0, symName: __Z3absB8ue170006d, symObjAddr: 0x63C, symBinAddr: 0x10001BC10, symSize: 0x18 }
  - { offsetInCU: 0x4B99, offset: 0x6FA61, size: 0x8, addend: 0x0, symName: __ZN2UI7Element10setPadSizeENS_7PadSizeE, symObjAddr: 0xE58, symBinAddr: 0x10001C0BC, symSize: 0x90 }
  - { offsetInCU: 0x4BCE, offset: 0x6FA96, size: 0x8, addend: 0x0, symName: __ZN2UI7Element4tinyEv, symObjAddr: 0xEE8, symBinAddr: 0x10001C14C, symSize: 0x38 }
  - { offsetInCU: 0x4BF5, offset: 0x6FABD, size: 0x8, addend: 0x0, symName: __ZN2UI7Element5smallEv, symObjAddr: 0xF20, symBinAddr: 0x10001C184, symSize: 0x38 }
  - { offsetInCU: 0x4C1C, offset: 0x6FAE4, size: 0x8, addend: 0x0, symName: __ZN2UI7Element3medEv, symObjAddr: 0xF58, symBinAddr: 0x10001C1BC, symSize: 0x38 }
  - { offsetInCU: 0x4C43, offset: 0x6FB0B, size: 0x8, addend: 0x0, symName: __ZN2UI7Element5largeEv, symObjAddr: 0xF90, symBinAddr: 0x10001C1F4, symSize: 0x38 }
  - { offsetInCU: 0x4C6A, offset: 0x6FB32, size: 0x8, addend: 0x0, symName: __ZNSt3__112basic_stringIcNS_11char_traitsIcEENS_9allocatorIcEEE6insertB8ue170006EmRKS5_, symObjAddr: 0x18A4, symBinAddr: 0x10001C22C, symSize: 0x5C }
  - { offsetInCU: 0x164, offset: 0x6FCEC, size: 0x8, addend: 0x0, symName: __ZN2UI8getStockEv, symObjAddr: 0x0, symBinAddr: 0x10001C288, symSize: 0x1EC }
  - { offsetInCU: 0x1A0, offset: 0x6FD28, size: 0x8, addend: 0x0, symName: __ZN2UI12getUserInputIdEEvNSt3__112basic_stringIcNS1_11char_traitsIcEENS1_9allocatorIcEEEERT_, symObjAddr: 0x278, symBinAddr: 0x10001C474, symSize: 0x8C }
  - { offsetInCU: 0x1E0, offset: 0x6FD68, size: 0x8, addend: 0x0, symName: __ZN2UI12getUserInputImEEvNSt3__112basic_stringIcNS1_11char_traitsIcEENS1_9allocatorIcEEEERT_, symObjAddr: 0x304, symBinAddr: 0x10001C500, symSize: 0x8C }
  - { offsetInCU: 0x220, offset: 0x6FDA8, size: 0x8, addend: 0x0, symName: __ZN2UI20printStockLineHeaderEv, symObjAddr: 0x484, symBinAddr: 0x10001C58C, symSize: 0x218 }
  - { offsetInCU: 0x23A, offset: 0x6FDC2, size: 0x8, addend: 0x0, symName: __ZN2UI8printBarEv, symObjAddr: 0x6FC, symBinAddr: 0x10001C7D8, symSize: 0xA4 }
  - { offsetInCU: 0x254, offset: 0x6FDDC, size: 0x8, addend: 0x0, symName: __ZN2UI14printStockLineER5Stock, symObjAddr: 0x81C, symBinAddr: 0x10001C87C, symSize: 0x2C0 }
  - { offsetInCU: 0x2C2, offset: 0x6FE4A, size: 0x8, addend: 0x0, symName: __ZN2UI19printPortfolioValueERK9Portfolio, symObjAddr: 0xBEC, symBinAddr: 0x10001CC18, symSize: 0x150 }
  - { offsetInCU: 0x2EA, offset: 0x6FE72, size: 0x8, addend: 0x0, symName: __ZN2UI13printOverviewERK9Portfolio, symObjAddr: 0xDB8, symBinAddr: 0x10001CD9C, symSize: 0xE4 }
  - { offsetInCU: 0x353, offset: 0x6FEDB, size: 0x8, addend: 0x0, symName: __ZN2UI14printStockViewER5Stock, symObjAddr: 0xFF0, symBinAddr: 0x10001CE80, symSize: 0x1B8 }
  - { offsetInCU: 0x37B, offset: 0x6FF03, size: 0x8, addend: 0x0, symName: __ZN2UI14printAppHeaderEv, symObjAddr: 0x11A8, symBinAddr: 0x10001D038, symSize: 0x2C }
  - { offsetInCU: 0x395, offset: 0x6FF1D, size: 0x8, addend: 0x0, symName: __ZN2UI16printApiKeyErrorEv, symObjAddr: 0x11D4, symBinAddr: 0x10001D064, symSize: 0x94 }
  - { offsetInCU: 0xDB54, offset: 0x7D6DC, size: 0x8, addend: 0x0, symName: __ZN2UI7ElementC1EPKc, symObjAddr: 0x69C, symBinAddr: 0x10001C7A4, symSize: 0x34 }
  - { offsetInCU: 0xDB8B, offset: 0x7D713, size: 0x8, addend: 0x0, symName: __ZN5Stock9symbolStrEv, symObjAddr: 0xADC, symBinAddr: 0x10001CB3C, symSize: 0x30 }
  - { offsetInCU: 0xDBAF, offset: 0x7D737, size: 0x8, addend: 0x0, symName: __ZN2UI7ElementC1ImEET_, symObjAddr: 0xB40, symBinAddr: 0x10001CB6C, symSize: 0x34 }
  - { offsetInCU: 0xDBEE, offset: 0x7D776, size: 0x8, addend: 0x0, symName: __ZN2UI7ElementC1Ecd, symObjAddr: 0xB74, symBinAddr: 0x10001CBA0, symSize: 0x3C }
  - { offsetInCU: 0xDC32, offset: 0x7D7BA, size: 0x8, addend: 0x0, symName: __ZN2UI7ElementC1Edc, symObjAddr: 0xBB0, symBinAddr: 0x10001CBDC, symSize: 0x3C }
  - { offsetInCU: 0xDC76, offset: 0x7D7FE, size: 0x8, addend: 0x0, symName: __ZN2UI7ElementC1Ed, symObjAddr: 0xD60, symBinAddr: 0x10001CD68, symSize: 0x34 }
  - { offsetInCU: 0xDD56, offset: 0x7D8DE, size: 0x8, addend: 0x0, symName: __ZN2UI7ElementC2EPKc, symObjAddr: 0x15AC, symBinAddr: 0x10001D0F8, symSize: 0x40 }
  - { offsetInCU: 0xDD8C, offset: 0x7D914, size: 0x8, addend: 0x0, symName: __ZN2UI7ElementC2Ecd, symObjAddr: 0x1664, symBinAddr: 0x10001D138, symSize: 0x48 }
  - { offsetInCU: 0xDDD0, offset: 0x7D958, size: 0x8, addend: 0x0, symName: __ZN2UI7ElementC2Edc, symObjAddr: 0x16AC, symBinAddr: 0x10001D180, symSize: 0x48 }
  - { offsetInCU: 0xDE14, offset: 0x7D99C, size: 0x8, addend: 0x0, symName: __ZN2UI7ElementC2Ed, symObjAddr: 0x16F4, symBinAddr: 0x10001D1C8, symSize: 0x40 }
  - { offsetInCU: 0xDE5E, offset: 0x7D9E6, size: 0x8, addend: 0x0, symName: __ZN2UI7ElementC2ImEET_, symObjAddr: 0x25EC, symBinAddr: 0x10001D208, symSize: 0x40 }
...
